
Optional file vector_offset_init.o not found
Archive member included to satisfy reference by file (symbol)

e:/program files (x86)/microchip/xc32/v4.10/bin/bin/../../lib/gcc/pic32mx/8.3.1/../../../../pic32mx/lib/fpu64\libpic32.a(memcpy.o)
                              build/pic32mk_mcm_curiosity_pro/production/_ext/813588705/vofa.o (memcpy)
e:/program files (x86)/microchip/xc32/v4.10/bin/bin/../../lib/gcc/pic32mx/8.3.1/../../../../pic32mx/lib/fpu64\libpic32.a(memset.o)
                              build/pic32mk_mcm_curiosity_pro/production/_ext/813588705/vofa.o (memset)
e:/program files (x86)/microchip/xc32/v4.10/bin/bin/../../lib/gcc/pic32mx/8.3.1/../../../../pic32mx/lib/fpu64\libpic32.a(default-on-reset.o)
                              C:\Users\031379~1.FDI\AppData\Local\Temp\ccqTAD6z.o (_on_reset)
e:/program files (x86)/microchip/xc32/v4.10/bin/bin/../../lib/gcc/pic32mx/8.3.1/../../../../pic32mx/lib/fpu64\libpic32.a(default-on-bootstrap.o)
                              C:\Users\031379~1.FDI\AppData\Local\Temp\ccqTAD6z.o (_on_bootstrap)
e:/program files (x86)/microchip/xc32/v4.10/bin/bin/../../lib/gcc/pic32mx/8.3.1/../../../../pic32mx/lib/fpu64\libpic32.a(default-nmi-handler.o)
                              C:\Users\031379~1.FDI\AppData\Local\Temp\ccqTAD6z.o (_nmi_handler)
e:/program files (x86)/microchip/xc32/v4.10/bin/bin/../../lib/gcc/pic32mx/8.3.1/../../../../pic32mx/lib/fpu64\libpic32.a(pic32_data_init.o)
                              C:\Users\031379~1.FDI\AppData\Local\Temp\ccqTAD6z.o (__pic32_data_init)
e:/program files (x86)/microchip/xc32/v4.10/bin/bin/../../lib/gcc/pic32mx/8.3.1/../../../../pic32mx/lib/fpu64\libpic32.a(general-exception.o)
                              C:\Users\031379~1.FDI\AppData\Local\Temp\ccqTAD6z.o (_general_exception_context)
e:/program files (x86)/microchip/xc32/v4.10/bin/bin/../../lib/gcc/pic32mx/8.3.1/../../../../pic32mx/lib/fpu64\libpic32.a(defaultinterrupt.o)
                              C:\Users\031379~1.FDI\AppData\Local\Temp\ccOQxQHj.o (_DefaultInterrupt)
e:/program files (x86)/microchip/xc32/v4.10/bin/bin/../../lib/gcc/pic32mx/8.3.1/../../../../pic32mx/lib/fpu64\libm-musl.a(cosf.o)
                              build/pic32mk_mcm_curiosity_pro/production/_ext/423055883/Coordinate_transform.o (cosf)
e:/program files (x86)/microchip/xc32/v4.10/bin/bin/../../lib/gcc/pic32mx/8.3.1/../../../../pic32mx/lib/fpu64\libm-musl.a(expf.o)
                              build/pic32mk_mcm_curiosity_pro/production/_ext/423055883/Motor.o (expf)
e:/program files (x86)/microchip/xc32/v4.10/bin/bin/../../lib/gcc/pic32mx/8.3.1/../../../../pic32mx/lib/fpu64\libm-musl.a(log.o)
                              build/pic32mk_mcm_curiosity_pro/production/_ext/1224054987/plib_adchs.o (log)
e:/program files (x86)/microchip/xc32/v4.10/bin/bin/../../lib/gcc/pic32mx/8.3.1/../../../../pic32mx/lib/fpu64\libm-musl.a(scalbnf.o)
                              e:/program files (x86)/microchip/xc32/v4.10/bin/bin/../../lib/gcc/pic32mx/8.3.1/../../../../pic32mx/lib/fpu64\libm-musl.a(expf.o) (scalbnf)
e:/program files (x86)/microchip/xc32/v4.10/bin/bin/../../lib/gcc/pic32mx/8.3.1/../../../../pic32mx/lib/fpu64\libm-musl.a(sinf.o)
                              build/pic32mk_mcm_curiosity_pro/production/_ext/423055883/Coordinate_transform.o (sinf)
e:/program files (x86)/microchip/xc32/v4.10/bin/bin/../../lib/gcc/pic32mx/8.3.1/../../../../pic32mx/lib/fpu64\libm-musl.a(sqrtf.o)
                              build/pic32mk_mcm_curiosity_pro/production/_ext/423055883/FOC_Control.o (sqrtf)
e:/program files (x86)/microchip/xc32/v4.10/bin/bin/../../lib/gcc/pic32mx/8.3.1/../../../../pic32mx/lib/fpu64\libm-musl.a(__cosdf.o)
                              e:/program files (x86)/microchip/xc32/v4.10/bin/bin/../../lib/gcc/pic32mx/8.3.1/../../../../pic32mx/lib/fpu64\libm-musl.a(cosf.o) (__cosdf)
e:/program files (x86)/microchip/xc32/v4.10/bin/bin/../../lib/gcc/pic32mx/8.3.1/../../../../pic32mx/lib/fpu64\libm-musl.a(__rem_pio2f.o)
                              e:/program files (x86)/microchip/xc32/v4.10/bin/bin/../../lib/gcc/pic32mx/8.3.1/../../../../pic32mx/lib/fpu64\libm-musl.a(cosf.o) (__rem_pio2f)
e:/program files (x86)/microchip/xc32/v4.10/bin/bin/../../lib/gcc/pic32mx/8.3.1/../../../../pic32mx/lib/fpu64\libm-musl.a(__sindf.o)
                              e:/program files (x86)/microchip/xc32/v4.10/bin/bin/../../lib/gcc/pic32mx/8.3.1/../../../../pic32mx/lib/fpu64\libm-musl.a(cosf.o) (__sindf)
e:/program files (x86)/microchip/xc32/v4.10/bin/bin/../../lib/gcc/pic32mx/8.3.1/../../../../pic32mx/lib/fpu64\libm-musl.a(__rem_pio2_large.o)
                              e:/program files (x86)/microchip/xc32/v4.10/bin/bin/../../lib/gcc/pic32mx/8.3.1/../../../../pic32mx/lib/fpu64\libm-musl.a(__rem_pio2f.o) (__rem_pio2_large)
e:/program files (x86)/microchip/xc32/v4.10/bin/bin/../../lib/gcc/pic32mx/8.3.1/../../../../pic32mx/lib/fpu64\libm-musl.a(floor.o)
                              e:/program files (x86)/microchip/xc32/v4.10/bin/bin/../../lib/gcc/pic32mx/8.3.1/../../../../pic32mx/lib/fpu64\libm-musl.a(__rem_pio2_large.o) (floor)
e:/program files (x86)/microchip/xc32/v4.10/bin/bin/../../lib/gcc/pic32mx/8.3.1/../../../../pic32mx/lib/fpu64\libm-musl.a(scalbn.o)
                              e:/program files (x86)/microchip/xc32/v4.10/bin/bin/../../lib/gcc/pic32mx/8.3.1/../../../../pic32mx/lib/fpu64\libm-musl.a(__rem_pio2_large.o) (scalbn)
e:/program files (x86)/microchip/xc32/v4.10/bin/bin/../../lib/gcc/pic32mx/8.3.1/../../../../pic32mx/lib/fpu64\libpic32.a(errno.o)
                              e:/program files (x86)/microchip/xc32/v4.10/bin/bin/../../lib/gcc/pic32mx/8.3.1/../../../../pic32mx/lib/fpu64\libm-musl.a(expf.o) (errno)

Allocating common symbols
Common symbol       size              file

adc_count0          0x2               build/pic32mk_mcm_curiosity_pro/production/_ext/1224054987/plib_adchs.o
Angler_err          0x4               build/pic32mk_mcm_curiosity_pro/production/_ext/423055883/FOC_Control.o
icap4Obj            0x8               build/pic32mk_mcm_curiosity_pro/production/_ext/1068655703/plib_icap4.o
mcpwmObj            0x60              build/pic32mk_mcm_curiosity_pro/production/_ext/1235120400/plib_mcpwm.o
vofa_data           0x28              build/pic32mk_mcm_curiosity_pro/production/_ext/423055883/FOC_Control.o
J_Scope_Buf         0x400             build/pic32mk_mcm_curiosity_pro/production/_ext/423055883/Motor.o
period              0x2               build/pic32mk_mcm_curiosity_pro/production/_ext/1360937237/main.o
uart6Obj            0x40              build/pic32mk_mcm_curiosity_pro/production/_ext/1068299602/plib_uart6.o
j                   0x4               build/pic32mk_mcm_curiosity_pro/production/_ext/1360937237/main.o
ADCHS_CallbackObj   0x1a8             build/pic32mk_mcm_curiosity_pro/production/_ext/1224054987/plib_adchs.o
adc_count21         0x2               build/pic32mk_mcm_curiosity_pro/production/_ext/1224054987/plib_adchs.o
Init_Over           0x1               build/pic32mk_mcm_curiosity_pro/production/_ext/1360937237/main.o
JScope_data         0x8               build/pic32mk_mcm_curiosity_pro/production/_ext/423055883/FOC_Control.o
adc_count14         0x2               build/pic32mk_mcm_curiosity_pro/production/_ext/1224054987/plib_adchs.o
adc_count12         0x2               build/pic32mk_mcm_curiosity_pro/production/_ext/1224054987/plib_adchs.o
readData            0x200             build/pic32mk_mcm_curiosity_pro/production/_ext/1978316258/plib_eeprom.o
IF_Angle            0x2               build/pic32mk_mcm_curiosity_pro/production/_ext/423055883/FOC_Control.o
adc_count1          0x2               build/pic32mk_mcm_curiosity_pro/production/_ext/1224054987/plib_adchs.o
IF_Theta            0x4               build/pic32mk_mcm_curiosity_pro/production/_ext/423055883/FOC_Control.o
HFI_Speed           0x2               build/pic32mk_mcm_curiosity_pro/production/_ext/423055883/Motor.o
NTC_Temp            0x4               build/pic32mk_mcm_curiosity_pro/production/_ext/1224054987/plib_adchs.o
icap5Obj            0x8               build/pic32mk_mcm_curiosity_pro/production/_ext/1068655703/plib_icap5.o
fc                  0x4               build/pic32mk_mcm_curiosity_pro/production/_ext/813588705/vofa.o
input_voltage       0x4               build/pic32mk_mcm_curiosity_pro/production/_ext/1360937237/main.o
M_SPEED             0x2               build/pic32mk_mcm_curiosity_pro/production/_ext/423055883/Motor.o
adc_count20         0x2               build/pic32mk_mcm_curiosity_pro/production/_ext/1224054987/plib_adchs.o
Ext_Angle           0x4               build/pic32mk_mcm_curiosity_pro/production/_ext/423055883/FOC_Control.o
icap3Obj            0x8               build/pic32mk_mcm_curiosity_pro/production/_ext/1068655703/plib_icap3.o
adc_count13         0x2               build/pic32mk_mcm_curiosity_pro/production/_ext/1224054987/plib_adchs.o
adc_count15         0x2               build/pic32mk_mcm_curiosity_pro/production/_ext/1224054987/plib_adchs.o
Cal_time            0x1               build/pic32mk_mcm_curiosity_pro/production/_ext/423055883/FOC_Control.o
adc_count11         0x2               build/pic32mk_mcm_curiosity_pro/production/_ext/1224054987/plib_adchs.o
Stall_time          0x2               build/pic32mk_mcm_curiosity_pro/production/_ext/423055883/FOC_Control.o
writeData           0x200             build/pic32mk_mcm_curiosity_pro/production/_ext/1978316258/plib_eeprom.o
IF_Frq              0x2               build/pic32mk_mcm_curiosity_pro/production/_ext/423055883/FOC_Control.o

Microchip PIC32 Memory-Usage Report

kseg0 Program-Memory Usage
section                    address  length [bytes]      (dec)  Description
-------                 ----------  -------------------------  -----------
.text.PWM_PeriodHandler 0x9d000000          0x17c         380   
.app_excpt              0x9d000180           0x10          16  General-Exception 
.rodata.cst8            0x9d000190           0x70         112   
.vectors                0x9d000200           0xa8         168   
.rodata                 0x9d0002a8         0x1364        4964  Read-only const 
.text.I2C1_TransferSM   0x9d00160c          0x884        2180   
.text.__rem_pio2_large  0x9d001e90          0x848        2120   
.dinit                  0x9d0026d8          0x790        1936   
.text.Fault_Detection   0x9d002e68          0x478        1144   
.text.SVPWM_Cale        0x9d0032e0          0x458        1112   
.text.main              0x9d003738          0x444        1092   
.text.my_atan2          0x9d003b7c          0x428        1064   
.text.my_atan           0x9d003fa4          0x398         920   
.text.UART6_SerialSetup 0x9d00433c          0x380         896   
.text.Speed_Closeloop   0x9d0046bc          0x378         888   
.text.RGB_ledControl    0x9d004a34          0x34c         844   
.text.ADC_ResultHandler 0x9d004d80          0x33c         828   
.text.IF_Start_Control  0x9d0050bc          0x2f8         760   
.text.XzwVfsend         0x9d0053b4          0x2b4         692   
.text.ADCHS_Initialize  0x9d005668          0x29c         668   
.text.PWM1_InterruptHan 0x9d005904          0x27c         636   
.text.MCPWM_Initialize  0x9d005b80          0x254         596   
.text.I2C1_TransferSetu 0x9d005dd4          0x238         568   
.text.Get_Speed         0x9d00600c          0x234         564   
.text.Variable_Clear    0x9d006240          0x20c         524   
.text.XzwVfGet          0x9d00644c          0x20c         524   
.text.UART6_RxPushByte  0x9d006658          0x1fc         508   
.text.TIMER_3_Handler   0x9d006854          0x1f8         504   
.text.INPUT_CAPTURE_3_H 0x9d006a4c          0x1f8         504   
.text.INPUT_CAPTURE_4_H 0x9d006c44          0x1f8         504   
.text.INPUT_CAPTURE_5_H 0x9d006e3c          0x1f8         504   
.text.I2C1_BUS_Handler  0x9d007034          0x1f8         504   
.text.I2C1_MASTER_Handl 0x9d00722c          0x1f8         504   
.text.ADC_DATA0_Handler 0x9d007424          0x1f8         504   
.text.ADC_DATA1_Handler 0x9d00761c          0x1f8         504   
.text.UART6_FAULT_Handl 0x9d007814          0x1f8         504   
.text.UART6_RX_Handler  0x9d007a0c          0x1f8         504   
.text.UART6_TX_Handler  0x9d007c04          0x1f8         504   
.text.PWM1_Handler      0x9d007dfc          0x1f8         504   
.text.sinf              0x9d007ff4          0x1f0         496   
.text.expf              0x9d0081e4          0x1ec         492   
.text.temp_trans        0x9d0083d0          0x1e8         488   
.text.cosf              0x9d0085b8          0x1c4         452   
.text.UART6_Read        0x9d00877c          0x1b4         436   
.text.GPIO_Initialize   0x9d008930          0x1a8         424   
.text.log               0x9d008ad8          0x1a8         424   
.text.UART6_Initialize  0x9d008c80          0x1a4         420   
.text.ADC_Sample_Offset 0x9d008e24          0x194         404   
.text.PI_Pare_init      0x9d008fb8          0x190         400   
.text.UART6_Write       0x9d009148          0x174         372   
.text                   0x9d0092bc          0x168         360  App's exec code 
.text.I2C1_WriteRead    0x9d009424          0x160         352   
.text.UART6_TX_Interrup 0x9d009584          0x15c         348   
.text.I2C1_Read         0x9d0096e0          0x158         344   
.text.UART6_ReadNotific 0x9d009838          0x158         344   
.rodata                 0x9d009990          0x158         344  Read-only const 
.text.I2C1_Write        0x9d009ae8          0x154         340   
.text.UART6_TxPullByte  0x9d009c3c          0x150         336   
.text.EEPROM_Initialize 0x9d009d8c          0x14c         332   
.text.UART6_WriteNotifi 0x9d009ed8          0x14c         332   
.text.ADC_SAMPLE        0x9d00a024          0x148         328   
.text.UART6_TxPushByte  0x9d00a16c          0x148         328   
.text.ADC_Sample_Deal   0x9d00a2b4          0x134         308   
.text.sqrtf             0x9d00a3e8          0x134         308   
.text.Control_Mode_CmdP 0x9d00a51c          0x128         296   
.text.INPUT_CAPTURE_XZW 0x9d00a644          0x120         288   
.text.CLK_Initialize    0x9d00a764          0x11c         284   
.text.UVW_Axis_dq       0x9d00a880          0x118         280   
.text.Grad_XieLv        0x9d00a998          0x110         272   
.text.PI_Controller     0x9d00aaa8          0x110         272   
.text.__rem_pio2f       0x9d00abb8          0x110         272   
.text.SYS_Initialize    0x9d00acc8          0x10c         268   
.text.Get_Postion       0x9d00add4          0x108         264   
.text.PARK_Cale         0x9d00aedc           0xfc         252   
.text.IPARK_Cale        0x9d00afd8           0xfc         252   
.text.Postion_To_Zero_D 0x9d00b0d4           0xf4         244   
.text.QT_Motor          0x9d00b1c8           0xec         236   
.text.EEPROM_WordRead   0x9d00b2b4           0xe8         232   
.text.QEI1_Initialize   0x9d00b39c           0xe8         232   
.text.UART6_ErrorClear  0x9d00b484           0xe8         232   
.text.I2C1_IsBusy       0x9d00b56c           0xdc         220   
.text.general_exception 0x9d00b648           0xdc         220   
.text.APP_EepromWordWri 0x9d00b724          0x1a8         424   
.text.APP_EepromWordWri 0x9d00b8cc          0x1a8         424   
.text.APP_EepromWordWri 0x9d00ba74          0x1a8         424   
.text.APP_EepromWordWri 0x9d00bc1c          0x1a8         424   
.text.APP_EepromWordWri 0x9d00bdc4          0x1a8         424   
.text.APP_EepromWordWri 0x9d00bf6c          0x1a8         424   
.text.APP_EepromWordWri 0x9d00c114          0x1a8         424   
.text.APP_EepromWordWri 0x9d00c2bc           0xd4         212   
.text.APP_I2C1Callback  0x9d00c390           0xcc         204   
.rodata                 0x9d00c45c           0xcc         204  Read-only const 
.text.APP_EepromWordRea 0x9d00c528           0xc8         200   
.text.ICLARKE_Cale      0x9d00c5f0           0xc8         200   
.text.APP_EepromWordRea 0x9d00c6b8          0x190         400   
.text.Sat               0x9d00c848           0xc8         200   
.text.APP_EepromWordRea 0x9d00c910          0x190         400   
.text.APP_EepromWordRea 0x9d00caa0          0x190         400   
.text.ADCHS_ChannelResu 0x9d00cc30           0xc8         200   
.text.ADCHS_ChannelEarl 0x9d00ccf8           0xc8         200   
.text.APP_EepromWordRea 0x9d00cdc0           0xc8         200   
.text.EEPROM_WriteExecu 0x9d00ce88           0xc8         200   
.text.EEPROM_WordWrite  0x9d00cf50           0xc8         200   
.text.APP_EepromWordRea 0x9d00d018          0x190         400   
.text.APP_EepromWordRea 0x9d00d1a8          0x190         400   
.text.APP_EepromWordRea 0x9d00d338          0x190         400   
.text.APP_EepromWordRea 0x9d00d4c8           0xc8         200   
.text.I2C1_BUS_Interrup 0x9d00d590           0xc4         196   
.text.UART6_ReadCountGe 0x9d00d654           0xc4         196   
.text.UART6_WritePendin 0x9d00d718           0xc4         196   
.text.Limit_Sat         0x9d00d7dc           0xc0         192   
.text.ADCHS_ChannelResu 0x9d00d89c           0xc0         192   
.text.ADCHS_ChannelEarl 0x9d00d95c           0xc0         192   
.text.I2C1_Initialize   0x9d00da1c           0xbc         188   
.text.ADCHS_ChannelResu 0x9d00dad8           0xb4         180   
.text.EEPROM_PageErase  0x9d00db8c           0xb4         180   
.text.UART6_RX_Interrup 0x9d00dc40           0xb4         180   
.text.floor             0x9d00dcf4           0xb4         180   
.text.APP_EepromPageEra 0x9d00dda8          0x160         352   
.text.APP_EepromPageEra 0x9d00df08          0x160         352   
.text.APP_EepromPageEra 0x9d00e068          0x160         352   
.text.APP_EepromPageEra 0x9d00e1c8          0x160         352   
.text.APP_EepromPageEra 0x9d00e328           0xb0         176   
.text.UART6_FAULT_Inter 0x9d00e3d8           0xb0         176   
.text.APP_EepromPageEra 0x9d00e488          0x160         352   
.text.APP_EepromPageEra 0x9d00e5e8          0x160         352   
.text.APP_EepromPageEra 0x9d00e748          0x160         352   
.text.Sign              0x9d00e8a8           0xa8         168   
.text                   0x9d00e950           0xa8         168  App's exec code 
.text.EEPROM_BulkErase  0x9d00e9f8           0xa4         164   
.text.usartReadEventHan 0x9d00ea9c           0xa4         164   
.text.ADC_DATA1_Interru 0x9d00eb40           0x9c         156   
.text.ADC_DATA19_Interr 0x9d00ebdc           0x9c         156   
.text.Motor_Init        0x9d00ec78           0x98         152   
.text.EVIC_Initialize   0x9d00ed10           0x98         152   
.text.GPIO_PortWrite    0x9d00eda8           0x98         152   
.text.MCPWM_ChannelDead 0x9d00ee40           0x98         152   
.text.TIMER_2_Interrupt 0x9d00eed8           0x98         152   
.text.TIMER_3_Interrupt 0x9d00ef70           0x98         152   
.text.populate_buffer   0x9d00f008           0x94         148   
.text.CLARKE_Cale       0x9d00f09c           0x94         148   
.text.populate_buffer   0x9d00f130          0x128         296   
.text.populate_buffer   0x9d00f258          0x128         296   
.text.populate_buffer   0x9d00f380          0x128         296   
.text.ADC_DATA0_Interru 0x9d00f4a8           0x94         148   
.text.populate_buffer   0x9d00f53c          0x128         296   
.text.I2C1_CallbackRegi 0x9d00f664           0x94         148   
.text.IIC1_HANDLE       0x9d00f6f8           0x94         148   
.text.populate_buffer   0x9d00f78c          0x128         296   
.text.populate_buffer   0x9d00f8b4          0x128         296   
.text.populate_buffer   0x9d00f9dc          0x128         296   
.text                   0x9d00fb04           0x8c         140  App's exec code 
.text.scalbn            0x9d00fb90           0x8c         140   
.text.M_STOP            0x9d00fc1c           0x88         136   
.text.my_abs            0x9d00fca4           0x88         136   
.text.EVIC_SourceEnable 0x9d00fd2c           0x88         136   
.text.EVIC_SourceDisabl 0x9d00fdb4           0x88         136   
.text.EVIC_SourceStatus 0x9d00fe3c           0x88         136   
.text.EVIC_SourceStatus 0x9d00fec4           0x88         136   
.text.JScope_Data_Send  0x9d00ff4c           0x84         132   
.text.ADCHS_CallbackReg 0x9d00ffd0           0x84         132   
.text.MCPWM_CallbackReg 0x9d010054           0x84         132   
.text.UART6_ReadNotific 0x9d0100d8           0x84         132   
.text.UART6_WriteNotifi 0x9d01015c           0x84         132   
.text._mon_getc         0x9d0101e0           0x84         132   
.text.scalbnf           0x9d010264           0x84         132   
.text.FOC_Svpwm_dq      0x9d0102e8           0x80         128   
.text.my_max            0x9d010368           0x80         128   
.text.INPUT_CAPTURE_4_I 0x9d0103e8           0x80         128   
.text.INPUT_CAPTURE_5_I 0x9d010468           0x80         128   
.text.INPUT_CAPTURE_3_I 0x9d0104e8           0x80         128   
.text._mon_putc         0x9d010568           0x80         128   
.text.Sigmoid           0x9d0105e8           0x7c         124   
.text.CDAC2_Initialize  0x9d010664           0x7c         124   
.text.CDAC3_Initialize  0x9d0106e0           0x7c         124   
.text.EEPROM_IsBusy     0x9d01075c           0x7c         124   
.text.EVIC_SourceIsEnab 0x9d0107d8           0x7c         124   
.text.EVIC_SourceStatus 0x9d010854           0x7c         124   
.text.MCPWM_ChannelPins 0x9d0108d0           0x78         120   
.text.MCPWM_ChannelPins 0x9d010948           0x78         120   
.text.MCPWM_ChannelPins 0x9d0109c0           0x78         120   
.text.MCPWM_ChannelPins 0x9d010a38           0x78         120   
.text.TMR3_Initialize   0x9d010ab0           0x78         120   
.text.UART6_AutoBaudQue 0x9d010b28           0x78         120   
.text.ADCHS_ChannelConv 0x9d010ba0           0x74         116   
.text.TMR2_Initialize   0x9d010c14           0x74         116   
.text.EVIC_INT_Restore  0x9d010c88           0x6c         108   
.text.UART6_ReadThresho 0x9d010cf4           0x6c         108   
.text.UART6_WriteThresh 0x9d010d60           0x6c         108   
.text.UART6_AutoBaudSet 0x9d010dcc           0x6c         108   
.text.MCPWM_ChannelPrim 0x9d010e38           0x68         104   
.text.MCPWM_ChannelSeco 0x9d010ea0           0x68         104   
.text.MCPWM_ChannelPrim 0x9d010f08           0x68         104   
.text.MCPWM_ChannelSeco 0x9d010f70           0x68         104   
.text.MCPWM_ChannelLead 0x9d010fd8           0x68         104   
.text.UART6_ReadFreeBuf 0x9d011040           0x68         104   
.text.UART6_ReadCallbac 0x9d0110a8           0x68         104   
.text.UART6_WriteFreeBu 0x9d011110           0x68         104   
.text.ADCHS_ModulesDisa 0x9d011178           0x64         100   
.text.EVIC_INT_Disable  0x9d0111dc           0x64         100   
.text.GPIO_PortSet      0x9d011240           0x64         100   
.text.GPIO_PortClear    0x9d0112a4           0x64         100   
.text.GPIO_PortToggle   0x9d011308           0x64         100   
.text.GPIO_PortInputEna 0x9d01136c           0x64         100   
.text.GPIO_PortOutputEn 0x9d0113d0           0x64         100   
.text.OCMP2_Initialize  0x9d011434           0x64         100   
.text.OCMP3_Initialize  0x9d011498           0x64         100   
.text.OCMP4_Initialize  0x9d0114fc           0x64         100   
.text.delay_decrement   0x9d011560           0x64         100   
.text.Time3             0x9d0115c4           0x64         100   
.text.UART6_WriteCallba 0x9d011628           0x64         100   
.text.FOC_Control_Selec 0x9d01168c           0x60          96   
.text.ADCHS_ModulesEnab 0x9d0116ec           0x60          96   
.text.QEI1_PositionWind 0x9d01174c           0x60          96   
.text.ADCHS_ChannelResu 0x9d0117ac           0x5c          92   
.text.I2C1_ErrorGet     0x9d011808           0x5c          92   
.text.ICAP4_ErrorStatus 0x9d011864           0x5c          92   
.text.ICAP5_ErrorStatus 0x9d0118c0           0x5c          92   
.text.ICAP3_ErrorStatus 0x9d01191c           0x5c          92   
.text.delay_1ms         0x9d011978           0x5c          92   
.text.UART6_ErrorGet    0x9d0119d4           0x5c          92   
.text.Get_ADC           0x9d011a30           0x58          88   
.rodata                 0x9d011a88           0x58          88  Read-only const 
.text.CDAC2_DataWrite   0x9d011ae0           0x58          88   
.text.CDAC3_DataWrite   0x9d011b38           0x58          88   
.text.GPIO_PortRead     0x9d011b90           0x58          88   
.text.GPIO_PortLatchRea 0x9d011be8           0x58          88   
.text.ICAP4_Initialize  0x9d011c40           0x58          88   
.text.ICAP4_CallbackReg 0x9d011c98           0x58          88   
.text.ICAP5_Initialize  0x9d011cf0           0x58          88   
.text.ICAP5_CallbackReg 0x9d011d48           0x58          88   
.text.ICAP3_Initialize  0x9d011da0           0x58          88   
.text.ICAP3_CallbackReg 0x9d011df8           0x58          88   
.text.QEI1_Stop         0x9d011e50           0x58          88   
.text.TMR2_CallbackRegi 0x9d011ea8           0x58          88   
.text.TMR3_CallbackRegi 0x9d011f00           0x58          88   
.text.WDT_Clear         0x9d011f58           0x58          88   
.text.ADCHS_GlobalEdgeC 0x9d011fb0           0x54          84   
.text.ADCHS_GlobalLevel 0x9d012004           0x54          84   
.text.MCPWM_Start       0x9d012058           0x54          84   
.text.MCPWM_PrimaryPeri 0x9d0120ac           0x54          84   
.text.MCPWM_SecondaryPe 0x9d012100           0x54          84   
.text.OCMP2_CompareSeco 0x9d012154           0x54          84   
.text.OCMP3_CompareSeco 0x9d0121a8           0x54          84   
.text.OCMP4_CompareSeco 0x9d0121fc           0x54          84   
.text.QEI1_Start        0x9d012250           0x54          84   
.text.TMR2_PeriodSet    0x9d0122a4           0x54          84   
.text.UART6_WriteCountG 0x9d0122f8           0x54          84   
.text.WDT_Enable        0x9d01234c           0x54          84   
.text.WDT_WindowEnable  0x9d0123a0           0x54          84   
.text.main_entry        0x9d0123f4           0x54          84   
.text.M_RUN             0x9d012448           0x50          80   
.text.ADCHS_GlobalLevel 0x9d012498           0x50          80   
.text.I2C1_MASTER_Inter 0x9d0124e8           0x50          80   
.text.MCPWM_Stop        0x9d012538           0x50          80   
.text.QEI1_PositionCoun 0x9d012588           0x50          80   
.text.QEI1_VelocityCoun 0x9d0125d8           0x50          80   
.text.TMR3_PeriodSet    0x9d012628           0x50          80   
.text.usartWriteEventHa 0x9d012678           0x50          80   
.text.WDT_Disable       0x9d0126c8           0x50          80   
.text.WDT_WindowDisable 0x9d012718           0x50          80   
.text.ADCHS_EOSStatusGe 0x9d012768           0x4c          76   
.text.EVIC_INT_Enable   0x9d0127b4           0x4c          76   
.text.ICAP4_Enable      0x9d012800           0x4c          76   
.text.ICAP4_Disable     0x9d01284c           0x4c          76   
.text.ICAP5_Enable      0x9d012898           0x4c          76   
.text.ICAP5_Disable     0x9d0128e4           0x4c          76   
.text.ICAP3_Enable      0x9d012930           0x4c          76   
.text.ICAP3_Disable     0x9d01297c           0x4c          76   
.text.OCMP2_Enable      0x9d0129c8           0x4c          76   
.text.OCMP2_Disable     0x9d012a14           0x4c          76   
.text.OCMP3_Enable      0x9d012a60           0x4c          76   
.text.OCMP3_Disable     0x9d012aac           0x4c          76   
.text.OCMP4_Enable      0x9d012af8           0x4c          76   
.text.OCMP4_Disable     0x9d012b44           0x4c          76   
.text.TMR2_Start        0x9d012b90           0x4c          76   
.text.TMR2_Stop         0x9d012bdc           0x4c          76   
.text.TMR2_InterruptEna 0x9d012c28           0x4c          76   
.text.TMR2_InterruptDis 0x9d012c74           0x4c          76   
.text.TMR3_Start        0x9d012cc0           0x4c          76   
.text.TMR3_Stop         0x9d012d0c           0x4c          76   
.text.TMR3_InterruptEna 0x9d012d58           0x4c          76   
.text.TMR3_InterruptDis 0x9d012da4           0x4c          76   
.text.UART6_ReadBufferS 0x9d012df0           0x4c          76   
.text.UART6_WriteBuffer 0x9d012e3c           0x4c          76   
.text.__cosdf           0x9d012e88           0x4c          76   
.text.ADC_ResultHandler 0x9d012ed4           0x48          72   
.text.EEPROM_ErrorGet   0x9d012f1c           0x48          72   
.text.ICAP4_CaptureBuff 0x9d012f64           0x48          72   
.text.ICAP5_CaptureBuff 0x9d012fac           0x48          72   
.text.ICAP3_CaptureBuff 0x9d012ff4           0x48          72   
.text.MCPWM_PrimaryPeri 0x9d01303c           0x48          72   
.text.MCPWM_SecondaryPe 0x9d013084           0x48          72   
.text.OCMP2_CompareValu 0x9d0130cc           0x48          72   
.text.OCMP2_CompareSeco 0x9d013114           0x48          72   
.text.OCMP3_CompareValu 0x9d01315c           0x48          72   
.text.OCMP3_CompareSeco 0x9d0131a4           0x48          72   
.text.OCMP4_CompareValu 0x9d0131ec           0x48          72   
.text.OCMP4_CompareSeco 0x9d013234           0x48          72   
.text.TMR2_PeriodGet    0x9d01327c           0x48          72   
.text.TMR2_CounterGet   0x9d0132c4           0x48          72   
.text._general_exceptio 0x9d01330c           0x48          72   
.text._bootstrap_except 0x9d013354           0x48          72   
.text.QEI1PeriodHandler 0x9d01339c           0x48          72   
.text.__sindf           0x9d0133e4           0x48          72   
.text.QEI1_PulseInterva 0x9d01342c           0x44          68   
.text.TMR2_FrequencyGet 0x9d013470           0x44          68   
.text.TMR3_PeriodGet    0x9d0134b4           0x44          68   
.text.TMR3_CounterGet   0x9d0134f8           0x44          68   
.text.TMR3_FrequencyGet 0x9d01353c           0x44          68   
.text                   0x9d013580           0x44          68  App's exec code 
.text.Senserless_SMO_Co 0x9d0135c4           0x40          64   
.text.Sensorless_Fullsp 0x9d013604           0x40          64   
.text.Send_TO_PC        0x9d013644           0x40          64   
.text.J_Scope_Write     0x9d013684           0x40          64   
.rodata                 0x9d0136c4           0x40          64  Read-only const 
.text.getSysTick        0x9d013704           0x40          64   
.text.check_key_xzwFoc_ 0x9d013744           0x40          64   
.rodata.cst8            0x9d013788           0x58          88   
.rodata.cst4            0x9d0137e0           0x24          36   
.rodata                 0x9d013804           0x20          32  Read-only const 
.rodata                 0x9d013828           0x20          32  Read-only const 
.rodata.cst8            0x9d013848           0x40          64   
.rodata.cst8            0x9d013888           0x40          64   
.MIPS.abiflags          0x9d0138c8           0x18          24   
.rodata                 0x9d0138e0           0x18          24  Read-only const 
.text                   0x9d0138f8           0x18          24  App's exec code 
.rodata.cst8            0x9d013910           0x18          24   
.rodata                 0x9d013928           0x14          20  Read-only const 
.rodata.cst8            0x9d013940           0x10          16   
.rodata                 0x9d013950           0x14          20  Read-only const 
.text._on_reset         0x9d013964            0x8           8   
.text._on_bootstrap     0x9d01396c            0x8           8   
.rodata.cst4            0x9d013974            0x8           8   
.rodata                 0x9d01397c            0x8           8  Read-only const 
.rodata.cst4            0x9d013984           0x10          16   
.rodata.cst4            0x9d013994            0x8           8   
      Total kseg0_program_mem used  :     0x1398c       80268  7.7% of 0x100000

kseg0 Boot-Memory Usage
section                    address  length [bytes]      (dec)  Description
-------                 ----------  -------------------------  -----------
         Total kseg0_boot_mem used  :           0           0  

kseg1 Boot-Memory Usage
section                    address  length [bytes]      (dec)  Description
-------                 ----------  -------------------------  -----------
.reset                  0xbfc00000          0x1a4         420  Reset handler 
.bev_excpt              0xbfc00380           0x10          16  BEV-Exception 
         Total kseg1_boot_mem used  :       0x1b4         436  37.8% of 0x480
        --------------------------------------------------------------------------
         Total Program Memory used  :     0x13b40       80704  7.7% of 0x100480
        --------------------------------------------------------------------------


kseg0 Data-Memory Usage
section                    address  length [bytes]      (dec)  Description
-------                 ----------  -------------------------  -----------
.sdata                  0x80000000           0x7c         124  Small init data 
.sbss                   0x8000007c          0x270         624  Small uninit data 
.bss                    0x800002ec          0x648        1608  Uninitialized data 
.bss                    0x80000934          0x84e        2126  Uninitialized data 
.bss                    0x80001184          0x16c         364  Uninitialized data 
.bss                    0x800012f0           0x93         147  Uninitialized data 
.bss                    0x80001384           0x54          84  Uninitialized data 
.bss.errno              0x800013d8            0x4           4   
         Total kseg0_data_mem used  :      0x13d9        5081  1.9% of 0x40000
        --------------------------------------------------------------------------
            Total Data Memory used  :      0x13d9        5081  1.9% of 0x40000
        --------------------------------------------------------------------------


Dynamic Data-Memory Reservation
section                    address  length [bytes]      (dec)  Description
-------                 ----------  -------------------------  -----------
heap                    0x800013e0          0x200         512  Reserved for heap 
stack                   0x800015f8        0x3e9f8      256504  Reserved for stack 

        --------------------------------------------------------------------------

Discarded input sections

 .text          0x0000000000000000        0x0 e:/program files (x86)/microchip/xc32/v4.10/bin/bin/../../lib/gcc/pic32mx/8.3.1/../../../../pic32mx/lib/fpu64\debug-exception-return.o
 .data          0x0000000000000000        0x0 e:/program files (x86)/microchip/xc32/v4.10/bin/bin/../../lib/gcc/pic32mx/8.3.1/../../../../pic32mx/lib/fpu64\debug-exception-return.o
 .bss           0x0000000000000000        0x0 e:/program files (x86)/microchip/xc32/v4.10/bin/bin/../../lib/gcc/pic32mx/8.3.1/../../../../pic32mx/lib/fpu64\debug-exception-return.o
 .xc_stack_usage.hdr
                0x0000000000000000        0xe e:/program files (x86)/microchip/xc32/v4.10/bin/bin/../../lib/gcc/pic32mx/8.3.1/../../../../pic32mx/lib/fpu64\debug-exception-return.o
 .xc_stack_usage
                0x0000000000000000       0x1d e:/program files (x86)/microchip/xc32/v4.10/bin/bin/../../lib/gcc/pic32mx/8.3.1/../../../../pic32mx/lib/fpu64\debug-exception-return.o
 .text          0x0000000000000000        0x0 build/pic32mk_mcm_curiosity_pro/production/_ext/423055883/Coordinate_transform.o
 .data          0x0000000000000000        0x0 build/pic32mk_mcm_curiosity_pro/production/_ext/423055883/Coordinate_transform.o
 .bss           0x0000000000000000        0x0 build/pic32mk_mcm_curiosity_pro/production/_ext/423055883/Coordinate_transform.o
 .reginfo       0x0000000000000000       0x18 build/pic32mk_mcm_curiosity_pro/production/_ext/423055883/Coordinate_transform.o
 .MIPS.abiflags
                0x0000000000000000       0x18 build/pic32mk_mcm_curiosity_pro/production/_ext/423055883/Coordinate_transform.o
 .codecov       0x0000000000000000        0x0 build/pic32mk_mcm_curiosity_pro/production/_ext/423055883/Coordinate_transform.o
 .text          0x0000000000000000        0x0 build/pic32mk_mcm_curiosity_pro/production/_ext/423055883/FOC_Control.o
 .data          0x0000000000000000       0x1c build/pic32mk_mcm_curiosity_pro/production/_ext/423055883/FOC_Control.o
 .reginfo       0x0000000000000000       0x18 build/pic32mk_mcm_curiosity_pro/production/_ext/423055883/FOC_Control.o
 .MIPS.abiflags
                0x0000000000000000       0x18 build/pic32mk_mcm_curiosity_pro/production/_ext/423055883/FOC_Control.o
 .codecov       0x0000000000000000        0x0 build/pic32mk_mcm_curiosity_pro/production/_ext/423055883/FOC_Control.o
 COMMON         0x0000000000000000       0x28 build/pic32mk_mcm_curiosity_pro/production/_ext/423055883/FOC_Control.o
 .text          0x0000000000000000        0x0 build/pic32mk_mcm_curiosity_pro/production/_ext/423055883/Motor.o
 .data          0x0000000000000000        0x0 build/pic32mk_mcm_curiosity_pro/production/_ext/423055883/Motor.o
 .bss           0x0000000000000000        0x0 build/pic32mk_mcm_curiosity_pro/production/_ext/423055883/Motor.o
 .reginfo       0x0000000000000000       0x18 build/pic32mk_mcm_curiosity_pro/production/_ext/423055883/Motor.o
 .MIPS.abiflags
                0x0000000000000000       0x18 build/pic32mk_mcm_curiosity_pro/production/_ext/423055883/Motor.o
 .codecov       0x0000000000000000        0x0 build/pic32mk_mcm_curiosity_pro/production/_ext/423055883/Motor.o
 COMMON         0x0000000000000000      0x400 build/pic32mk_mcm_curiosity_pro/production/_ext/423055883/Motor.o
 .text          0x0000000000000000        0x0 build/pic32mk_mcm_curiosity_pro/production/_ext/423055883/PI_Cale.o
 .data          0x0000000000000000        0x0 build/pic32mk_mcm_curiosity_pro/production/_ext/423055883/PI_Cale.o
 .reginfo       0x0000000000000000       0x18 build/pic32mk_mcm_curiosity_pro/production/_ext/423055883/PI_Cale.o
 .MIPS.abiflags
                0x0000000000000000       0x18 build/pic32mk_mcm_curiosity_pro/production/_ext/423055883/PI_Cale.o
 .codecov       0x0000000000000000        0x0 build/pic32mk_mcm_curiosity_pro/production/_ext/423055883/PI_Cale.o
 .text          0x0000000000000000        0x0 build/pic32mk_mcm_curiosity_pro/production/_ext/423055883/SVPWM.o
 .data          0x0000000000000000        0x0 build/pic32mk_mcm_curiosity_pro/production/_ext/423055883/SVPWM.o
 .reginfo       0x0000000000000000       0x18 build/pic32mk_mcm_curiosity_pro/production/_ext/423055883/SVPWM.o
 .MIPS.abiflags
                0x0000000000000000       0x18 build/pic32mk_mcm_curiosity_pro/production/_ext/423055883/SVPWM.o
 .codecov       0x0000000000000000        0x0 build/pic32mk_mcm_curiosity_pro/production/_ext/423055883/SVPWM.o
 .text          0x0000000000000000        0x0 build/pic32mk_mcm_curiosity_pro/production/_ext/1913420649/Speed_Enconder_HALLCAL.o
 .data          0x0000000000000000        0x0 build/pic32mk_mcm_curiosity_pro/production/_ext/1913420649/Speed_Enconder_HALLCAL.o
 .bss           0x0000000000000000        0x0 build/pic32mk_mcm_curiosity_pro/production/_ext/1913420649/Speed_Enconder_HALLCAL.o
 .reginfo       0x0000000000000000       0x18 build/pic32mk_mcm_curiosity_pro/production/_ext/1913420649/Speed_Enconder_HALLCAL.o
 .MIPS.abiflags
                0x0000000000000000       0x18 build/pic32mk_mcm_curiosity_pro/production/_ext/1913420649/Speed_Enconder_HALLCAL.o
 .codecov       0x0000000000000000        0x0 build/pic32mk_mcm_curiosity_pro/production/_ext/1913420649/Speed_Enconder_HALLCAL.o
 .text          0x0000000000000000        0x0 build/pic32mk_mcm_curiosity_pro/production/_ext/1224054987/plib_adchs.o
 .data          0x0000000000000000        0x0 build/pic32mk_mcm_curiosity_pro/production/_ext/1224054987/plib_adchs.o
 .reginfo       0x0000000000000000       0x18 build/pic32mk_mcm_curiosity_pro/production/_ext/1224054987/plib_adchs.o
 .MIPS.abiflags
                0x0000000000000000       0x18 build/pic32mk_mcm_curiosity_pro/production/_ext/1224054987/plib_adchs.o
 .codecov       0x0000000000000000        0x0 build/pic32mk_mcm_curiosity_pro/production/_ext/1224054987/plib_adchs.o
 .text          0x0000000000000000        0x0 build/pic32mk_mcm_curiosity_pro/production/_ext/1068833501/plib_cdac2.o
 .data          0x0000000000000000        0x0 build/pic32mk_mcm_curiosity_pro/production/_ext/1068833501/plib_cdac2.o
 .bss           0x0000000000000000        0x0 build/pic32mk_mcm_curiosity_pro/production/_ext/1068833501/plib_cdac2.o
 .reginfo       0x0000000000000000       0x18 build/pic32mk_mcm_curiosity_pro/production/_ext/1068833501/plib_cdac2.o
 .MIPS.abiflags
                0x0000000000000000       0x18 build/pic32mk_mcm_curiosity_pro/production/_ext/1068833501/plib_cdac2.o
 .codecov       0x0000000000000000        0x0 build/pic32mk_mcm_curiosity_pro/production/_ext/1068833501/plib_cdac2.o
 .text          0x0000000000000000        0x0 build/pic32mk_mcm_curiosity_pro/production/_ext/1068833501/plib_cdac3.o
 .data          0x0000000000000000        0x0 build/pic32mk_mcm_curiosity_pro/production/_ext/1068833501/plib_cdac3.o
 .bss           0x0000000000000000        0x0 build/pic32mk_mcm_curiosity_pro/production/_ext/1068833501/plib_cdac3.o
 .reginfo       0x0000000000000000       0x18 build/pic32mk_mcm_curiosity_pro/production/_ext/1068833501/plib_cdac3.o
 .MIPS.abiflags
                0x0000000000000000       0x18 build/pic32mk_mcm_curiosity_pro/production/_ext/1068833501/plib_cdac3.o
 .codecov       0x0000000000000000        0x0 build/pic32mk_mcm_curiosity_pro/production/_ext/1068833501/plib_cdac3.o
 .text          0x0000000000000000        0x0 build/pic32mk_mcm_curiosity_pro/production/_ext/865762238/plib_clk.o
 .data          0x0000000000000000        0x0 build/pic32mk_mcm_curiosity_pro/production/_ext/865762238/plib_clk.o
 .bss           0x0000000000000000        0x0 build/pic32mk_mcm_curiosity_pro/production/_ext/865762238/plib_clk.o
 .reginfo       0x0000000000000000       0x18 build/pic32mk_mcm_curiosity_pro/production/_ext/865762238/plib_clk.o
 .MIPS.abiflags
                0x0000000000000000       0x18 build/pic32mk_mcm_curiosity_pro/production/_ext/865762238/plib_clk.o
 .codecov       0x0000000000000000        0x0 build/pic32mk_mcm_curiosity_pro/production/_ext/865762238/plib_clk.o
 .text          0x0000000000000000        0x0 build/pic32mk_mcm_curiosity_pro/production/_ext/1978316258/plib_eeprom.o
 .data          0x0000000000000000        0x0 build/pic32mk_mcm_curiosity_pro/production/_ext/1978316258/plib_eeprom.o
 .bss           0x0000000000000000        0x0 build/pic32mk_mcm_curiosity_pro/production/_ext/1978316258/plib_eeprom.o
 .reginfo       0x0000000000000000       0x18 build/pic32mk_mcm_curiosity_pro/production/_ext/1978316258/plib_eeprom.o
 .MIPS.abiflags
                0x0000000000000000       0x18 build/pic32mk_mcm_curiosity_pro/production/_ext/1978316258/plib_eeprom.o
 .codecov       0x0000000000000000        0x0 build/pic32mk_mcm_curiosity_pro/production/_ext/1978316258/plib_eeprom.o
 .text          0x0000000000000000        0x0 build/pic32mk_mcm_curiosity_pro/production/_ext/1068756373/plib_evic.o
 .data          0x0000000000000000        0x0 build/pic32mk_mcm_curiosity_pro/production/_ext/1068756373/plib_evic.o
 .bss           0x0000000000000000        0x0 build/pic32mk_mcm_curiosity_pro/production/_ext/1068756373/plib_evic.o
 .reginfo       0x0000000000000000       0x18 build/pic32mk_mcm_curiosity_pro/production/_ext/1068756373/plib_evic.o
 .MIPS.abiflags
                0x0000000000000000       0x18 build/pic32mk_mcm_curiosity_pro/production/_ext/1068756373/plib_evic.o
 .codecov       0x0000000000000000        0x0 build/pic32mk_mcm_curiosity_pro/production/_ext/1068756373/plib_evic.o
 .text          0x0000000000000000        0x0 build/pic32mk_mcm_curiosity_pro/production/_ext/1068702545/plib_gpio.o
 .data          0x0000000000000000        0x0 build/pic32mk_mcm_curiosity_pro/production/_ext/1068702545/plib_gpio.o
 .bss           0x0000000000000000        0x0 build/pic32mk_mcm_curiosity_pro/production/_ext/1068702545/plib_gpio.o
 .reginfo       0x0000000000000000       0x18 build/pic32mk_mcm_curiosity_pro/production/_ext/1068702545/plib_gpio.o
 .MIPS.abiflags
                0x0000000000000000       0x18 build/pic32mk_mcm_curiosity_pro/production/_ext/1068702545/plib_gpio.o
 .codecov       0x0000000000000000        0x0 build/pic32mk_mcm_curiosity_pro/production/_ext/1068702545/plib_gpio.o
 .text          0x0000000000000000        0x0 build/pic32mk_mcm_curiosity_pro/production/_ext/1540640169/plib_i2c1_master.o
 .data          0x0000000000000000        0x0 build/pic32mk_mcm_curiosity_pro/production/_ext/1540640169/plib_i2c1_master.o
 .reginfo       0x0000000000000000       0x18 build/pic32mk_mcm_curiosity_pro/production/_ext/1540640169/plib_i2c1_master.o
 .MIPS.abiflags
                0x0000000000000000       0x18 build/pic32mk_mcm_curiosity_pro/production/_ext/1540640169/plib_i2c1_master.o
 .codecov       0x0000000000000000        0x0 build/pic32mk_mcm_curiosity_pro/production/_ext/1540640169/plib_i2c1_master.o
 .text          0x0000000000000000        0x0 build/pic32mk_mcm_curiosity_pro/production/_ext/1068655703/plib_icap4.o
 .data          0x0000000000000000        0x0 build/pic32mk_mcm_curiosity_pro/production/_ext/1068655703/plib_icap4.o
 .bss           0x0000000000000000        0x0 build/pic32mk_mcm_curiosity_pro/production/_ext/1068655703/plib_icap4.o
 .reginfo       0x0000000000000000       0x18 build/pic32mk_mcm_curiosity_pro/production/_ext/1068655703/plib_icap4.o
 .MIPS.abiflags
                0x0000000000000000       0x18 build/pic32mk_mcm_curiosity_pro/production/_ext/1068655703/plib_icap4.o
 .codecov       0x0000000000000000        0x0 build/pic32mk_mcm_curiosity_pro/production/_ext/1068655703/plib_icap4.o
 .text          0x0000000000000000        0x0 build/pic32mk_mcm_curiosity_pro/production/_ext/1068655703/plib_icap5.o
 .data          0x0000000000000000        0x0 build/pic32mk_mcm_curiosity_pro/production/_ext/1068655703/plib_icap5.o
 .bss           0x0000000000000000        0x0 build/pic32mk_mcm_curiosity_pro/production/_ext/1068655703/plib_icap5.o
 .reginfo       0x0000000000000000       0x18 build/pic32mk_mcm_curiosity_pro/production/_ext/1068655703/plib_icap5.o
 .MIPS.abiflags
                0x0000000000000000       0x18 build/pic32mk_mcm_curiosity_pro/production/_ext/1068655703/plib_icap5.o
 .codecov       0x0000000000000000        0x0 build/pic32mk_mcm_curiosity_pro/production/_ext/1068655703/plib_icap5.o
 .text          0x0000000000000000        0x0 build/pic32mk_mcm_curiosity_pro/production/_ext/1068655703/plib_icap3.o
 .data          0x0000000000000000        0x0 build/pic32mk_mcm_curiosity_pro/production/_ext/1068655703/plib_icap3.o
 .bss           0x0000000000000000        0x0 build/pic32mk_mcm_curiosity_pro/production/_ext/1068655703/plib_icap3.o
 .reginfo       0x0000000000000000       0x18 build/pic32mk_mcm_curiosity_pro/production/_ext/1068655703/plib_icap3.o
 .MIPS.abiflags
                0x0000000000000000       0x18 build/pic32mk_mcm_curiosity_pro/production/_ext/1068655703/plib_icap3.o
 .codecov       0x0000000000000000        0x0 build/pic32mk_mcm_curiosity_pro/production/_ext/1068655703/plib_icap3.o
 .text          0x0000000000000000        0x0 build/pic32mk_mcm_curiosity_pro/production/_ext/1235120400/plib_mcpwm.o
 .data          0x0000000000000000        0x0 build/pic32mk_mcm_curiosity_pro/production/_ext/1235120400/plib_mcpwm.o
 .bss           0x0000000000000000        0x0 build/pic32mk_mcm_curiosity_pro/production/_ext/1235120400/plib_mcpwm.o
 .reginfo       0x0000000000000000       0x18 build/pic32mk_mcm_curiosity_pro/production/_ext/1235120400/plib_mcpwm.o
 .MIPS.abiflags
                0x0000000000000000       0x18 build/pic32mk_mcm_curiosity_pro/production/_ext/1235120400/plib_mcpwm.o
 .codecov       0x0000000000000000        0x0 build/pic32mk_mcm_curiosity_pro/production/_ext/1235120400/plib_mcpwm.o
 .text          0x0000000000000000        0x0 build/pic32mk_mcm_curiosity_pro/production/_ext/1068476585/plib_ocmp2.o
 .data          0x0000000000000000        0x0 build/pic32mk_mcm_curiosity_pro/production/_ext/1068476585/plib_ocmp2.o
 .bss           0x0000000000000000        0x0 build/pic32mk_mcm_curiosity_pro/production/_ext/1068476585/plib_ocmp2.o
 .reginfo       0x0000000000000000       0x18 build/pic32mk_mcm_curiosity_pro/production/_ext/1068476585/plib_ocmp2.o
 .MIPS.abiflags
                0x0000000000000000       0x18 build/pic32mk_mcm_curiosity_pro/production/_ext/1068476585/plib_ocmp2.o
 .codecov       0x0000000000000000        0x0 build/pic32mk_mcm_curiosity_pro/production/_ext/1068476585/plib_ocmp2.o
 .text          0x0000000000000000        0x0 build/pic32mk_mcm_curiosity_pro/production/_ext/1068476585/plib_ocmp3.o
 .data          0x0000000000000000        0x0 build/pic32mk_mcm_curiosity_pro/production/_ext/1068476585/plib_ocmp3.o
 .bss           0x0000000000000000        0x0 build/pic32mk_mcm_curiosity_pro/production/_ext/1068476585/plib_ocmp3.o
 .reginfo       0x0000000000000000       0x18 build/pic32mk_mcm_curiosity_pro/production/_ext/1068476585/plib_ocmp3.o
 .MIPS.abiflags
                0x0000000000000000       0x18 build/pic32mk_mcm_curiosity_pro/production/_ext/1068476585/plib_ocmp3.o
 .codecov       0x0000000000000000        0x0 build/pic32mk_mcm_curiosity_pro/production/_ext/1068476585/plib_ocmp3.o
 .text          0x0000000000000000        0x0 build/pic32mk_mcm_curiosity_pro/production/_ext/1068476585/plib_ocmp4.o
 .data          0x0000000000000000        0x0 build/pic32mk_mcm_curiosity_pro/production/_ext/1068476585/plib_ocmp4.o
 .bss           0x0000000000000000        0x0 build/pic32mk_mcm_curiosity_pro/production/_ext/1068476585/plib_ocmp4.o
 .reginfo       0x0000000000000000       0x18 build/pic32mk_mcm_curiosity_pro/production/_ext/1068476585/plib_ocmp4.o
 .MIPS.abiflags
                0x0000000000000000       0x18 build/pic32mk_mcm_curiosity_pro/production/_ext/1068476585/plib_ocmp4.o
 .codecov       0x0000000000000000        0x0 build/pic32mk_mcm_curiosity_pro/production/_ext/1068476585/plib_ocmp4.o
 .text          0x0000000000000000        0x0 build/pic32mk_mcm_curiosity_pro/production/_ext/865749003/plib_qei1.o
 .data          0x0000000000000000        0x0 build/pic32mk_mcm_curiosity_pro/production/_ext/865749003/plib_qei1.o
 .bss           0x0000000000000000        0x0 build/pic32mk_mcm_curiosity_pro/production/_ext/865749003/plib_qei1.o
 .reginfo       0x0000000000000000       0x18 build/pic32mk_mcm_curiosity_pro/production/_ext/865749003/plib_qei1.o
 .MIPS.abiflags
                0x0000000000000000       0x18 build/pic32mk_mcm_curiosity_pro/production/_ext/865749003/plib_qei1.o
 .codecov       0x0000000000000000        0x0 build/pic32mk_mcm_curiosity_pro/production/_ext/865749003/plib_qei1.o
 .text          0x0000000000000000        0x0 build/pic32mk_mcm_curiosity_pro/production/_ext/865745863/plib_tmr2.o
 .data          0x0000000000000000        0x0 build/pic32mk_mcm_curiosity_pro/production/_ext/865745863/plib_tmr2.o
 .bss           0x0000000000000000        0x0 build/pic32mk_mcm_curiosity_pro/production/_ext/865745863/plib_tmr2.o
 .reginfo       0x0000000000000000       0x18 build/pic32mk_mcm_curiosity_pro/production/_ext/865745863/plib_tmr2.o
 .MIPS.abiflags
                0x0000000000000000       0x18 build/pic32mk_mcm_curiosity_pro/production/_ext/865745863/plib_tmr2.o
 .codecov       0x0000000000000000        0x0 build/pic32mk_mcm_curiosity_pro/production/_ext/865745863/plib_tmr2.o
 .text          0x0000000000000000        0x0 build/pic32mk_mcm_curiosity_pro/production/_ext/865745863/plib_tmr3.o
 .data          0x0000000000000000        0x0 build/pic32mk_mcm_curiosity_pro/production/_ext/865745863/plib_tmr3.o
 .bss           0x0000000000000000        0x0 build/pic32mk_mcm_curiosity_pro/production/_ext/865745863/plib_tmr3.o
 .reginfo       0x0000000000000000       0x18 build/pic32mk_mcm_curiosity_pro/production/_ext/865745863/plib_tmr3.o
 .MIPS.abiflags
                0x0000000000000000       0x18 build/pic32mk_mcm_curiosity_pro/production/_ext/865745863/plib_tmr3.o
 .codecov       0x0000000000000000        0x0 build/pic32mk_mcm_curiosity_pro/production/_ext/865745863/plib_tmr3.o
 .text          0x0000000000000000        0x0 build/pic32mk_mcm_curiosity_pro/production/_ext/1068299602/plib_uart6.o
 .data          0x0000000000000000        0x0 build/pic32mk_mcm_curiosity_pro/production/_ext/1068299602/plib_uart6.o
 .reginfo       0x0000000000000000       0x18 build/pic32mk_mcm_curiosity_pro/production/_ext/1068299602/plib_uart6.o
 .MIPS.abiflags
                0x0000000000000000       0x18 build/pic32mk_mcm_curiosity_pro/production/_ext/1068299602/plib_uart6.o
 .codecov       0x0000000000000000        0x0 build/pic32mk_mcm_curiosity_pro/production/_ext/1068299602/plib_uart6.o
 .text          0x0000000000000000        0x0 build/pic32mk_mcm_curiosity_pro/production/_ext/227981847/plib_wdt.o
 .data          0x0000000000000000        0x0 build/pic32mk_mcm_curiosity_pro/production/_ext/227981847/plib_wdt.o
 .bss           0x0000000000000000        0x0 build/pic32mk_mcm_curiosity_pro/production/_ext/227981847/plib_wdt.o
 .reginfo       0x0000000000000000       0x18 build/pic32mk_mcm_curiosity_pro/production/_ext/227981847/plib_wdt.o
 .MIPS.abiflags
                0x0000000000000000       0x18 build/pic32mk_mcm_curiosity_pro/production/_ext/227981847/plib_wdt.o
 .codecov       0x0000000000000000        0x0 build/pic32mk_mcm_curiosity_pro/production/_ext/227981847/plib_wdt.o
 .text          0x0000000000000000        0x0 build/pic32mk_mcm_curiosity_pro/production/_ext/1163999990/xc32_monitor.o
 .data          0x0000000000000000        0x0 build/pic32mk_mcm_curiosity_pro/production/_ext/1163999990/xc32_monitor.o
 .bss           0x0000000000000000        0x0 build/pic32mk_mcm_curiosity_pro/production/_ext/1163999990/xc32_monitor.o
 .reginfo       0x0000000000000000       0x18 build/pic32mk_mcm_curiosity_pro/production/_ext/1163999990/xc32_monitor.o
 .MIPS.abiflags
                0x0000000000000000       0x18 build/pic32mk_mcm_curiosity_pro/production/_ext/1163999990/xc32_monitor.o
 .codecov       0x0000000000000000        0x0 build/pic32mk_mcm_curiosity_pro/production/_ext/1163999990/xc32_monitor.o
 .text          0x0000000000000000        0x0 build/pic32mk_mcm_curiosity_pro/production/_ext/1433418692/initialization.o
 .data          0x0000000000000000        0x0 build/pic32mk_mcm_curiosity_pro/production/_ext/1433418692/initialization.o
 .bss           0x0000000000000000        0x0 build/pic32mk_mcm_curiosity_pro/production/_ext/1433418692/initialization.o
 .reginfo       0x0000000000000000       0x18 build/pic32mk_mcm_curiosity_pro/production/_ext/1433418692/initialization.o
 .MIPS.abiflags
                0x0000000000000000       0x18 build/pic32mk_mcm_curiosity_pro/production/_ext/1433418692/initialization.o
 .codecov       0x0000000000000000        0x0 build/pic32mk_mcm_curiosity_pro/production/_ext/1433418692/initialization.o
 .text          0x0000000000000000        0x0 build/pic32mk_mcm_curiosity_pro/production/_ext/1433418692/interrupts.o
 .data          0x0000000000000000        0x0 build/pic32mk_mcm_curiosity_pro/production/_ext/1433418692/interrupts.o
 .bss           0x0000000000000000        0x0 build/pic32mk_mcm_curiosity_pro/production/_ext/1433418692/interrupts.o
 .reginfo       0x0000000000000000       0x18 build/pic32mk_mcm_curiosity_pro/production/_ext/1433418692/interrupts.o
 .MIPS.abiflags
                0x0000000000000000       0x18 build/pic32mk_mcm_curiosity_pro/production/_ext/1433418692/interrupts.o
 .codecov       0x0000000000000000        0x0 build/pic32mk_mcm_curiosity_pro/production/_ext/1433418692/interrupts.o
 .text          0x0000000000000000        0x0 build/pic32mk_mcm_curiosity_pro/production/_ext/1433418692/exceptions.o
 .data          0x0000000000000000        0x0 build/pic32mk_mcm_curiosity_pro/production/_ext/1433418692/exceptions.o
 .bss           0x0000000000000000        0x0 build/pic32mk_mcm_curiosity_pro/production/_ext/1433418692/exceptions.o
 .reginfo       0x0000000000000000       0x18 build/pic32mk_mcm_curiosity_pro/production/_ext/1433418692/exceptions.o
 .MIPS.abiflags
                0x0000000000000000       0x18 build/pic32mk_mcm_curiosity_pro/production/_ext/1433418692/exceptions.o
 .codecov       0x0000000000000000        0x0 build/pic32mk_mcm_curiosity_pro/production/_ext/1433418692/exceptions.o
 .text          0x0000000000000000        0x0 build/pic32mk_mcm_curiosity_pro/production/_ext/1360937237/newfile.o
 .data          0x0000000000000000        0x0 build/pic32mk_mcm_curiosity_pro/production/_ext/1360937237/newfile.o
 .bss           0x0000000000000000        0x0 build/pic32mk_mcm_curiosity_pro/production/_ext/1360937237/newfile.o
 .reginfo       0x0000000000000000       0x18 build/pic32mk_mcm_curiosity_pro/production/_ext/1360937237/newfile.o
 .MIPS.abiflags
                0x0000000000000000       0x18 build/pic32mk_mcm_curiosity_pro/production/_ext/1360937237/newfile.o
 .text          0x0000000000000000        0x0 build/pic32mk_mcm_curiosity_pro/production/_ext/813588705/vofa.o
 .data          0x0000000000000000        0x0 build/pic32mk_mcm_curiosity_pro/production/_ext/813588705/vofa.o
 .reginfo       0x0000000000000000       0x18 build/pic32mk_mcm_curiosity_pro/production/_ext/813588705/vofa.o
 .MIPS.abiflags
                0x0000000000000000       0x18 build/pic32mk_mcm_curiosity_pro/production/_ext/813588705/vofa.o
 .codecov       0x0000000000000000        0x0 build/pic32mk_mcm_curiosity_pro/production/_ext/813588705/vofa.o
 .text          0x0000000000000000        0x0 build/pic32mk_mcm_curiosity_pro/production/_ext/1360937237/main.o
 .data          0x0000000000000000        0x0 build/pic32mk_mcm_curiosity_pro/production/_ext/1360937237/main.o
 .bss           0x0000000000000000        0xc build/pic32mk_mcm_curiosity_pro/production/_ext/1360937237/main.o
 .reginfo       0x0000000000000000       0x18 build/pic32mk_mcm_curiosity_pro/production/_ext/1360937237/main.o
 .MIPS.abiflags
                0x0000000000000000       0x18 build/pic32mk_mcm_curiosity_pro/production/_ext/1360937237/main.o
 .codecov       0x0000000000000000        0x0 build/pic32mk_mcm_curiosity_pro/production/_ext/1360937237/main.o
 .text          0x0000000000000000        0x0 C:\Users\031379~1.FDI\AppData\Local\Temp\ccqTAD6z.o
 .data          0x0000000000000000        0x0 C:\Users\031379~1.FDI\AppData\Local\Temp\ccqTAD6z.o
 .bss           0x0000000000000000        0x0 C:\Users\031379~1.FDI\AppData\Local\Temp\ccqTAD6z.o
 .reginfo       0x0000000000000000       0x18 C:\Users\031379~1.FDI\AppData\Local\Temp\ccqTAD6z.o
 .MIPS.abiflags
                0x0000000000000000       0x18 C:\Users\031379~1.FDI\AppData\Local\Temp\ccqTAD6z.o
 .text          0x0000000000000000        0x0 C:\Users\031379~1.FDI\AppData\Local\Temp\ccLYonyh.o
 .data          0x0000000000000000        0x0 C:\Users\031379~1.FDI\AppData\Local\Temp\ccLYonyh.o
 .bss           0x0000000000000000        0x0 C:\Users\031379~1.FDI\AppData\Local\Temp\ccLYonyh.o
 .reginfo       0x0000000000000000       0x18 C:\Users\031379~1.FDI\AppData\Local\Temp\ccLYonyh.o
 .MIPS.abiflags
                0x0000000000000000       0x18 C:\Users\031379~1.FDI\AppData\Local\Temp\ccLYonyh.o
 .text          0x0000000000000000        0x0 C:\Users\031379~1.FDI\AppData\Local\Temp\ccSANHGf.o
 .data          0x0000000000000000        0x0 C:\Users\031379~1.FDI\AppData\Local\Temp\ccSANHGf.o
 .bss           0x0000000000000000        0x0 C:\Users\031379~1.FDI\AppData\Local\Temp\ccSANHGf.o
 .reginfo       0x0000000000000000       0x18 C:\Users\031379~1.FDI\AppData\Local\Temp\ccSANHGf.o
 .MIPS.abiflags
                0x0000000000000000       0x18 C:\Users\031379~1.FDI\AppData\Local\Temp\ccSANHGf.o
 .text          0x0000000000000000        0x0 C:\Users\031379~1.FDI\AppData\Local\Temp\ccOQxQHj.o
 .data          0x0000000000000000        0x0 C:\Users\031379~1.FDI\AppData\Local\Temp\ccOQxQHj.o
 .bss           0x0000000000000000        0x0 C:\Users\031379~1.FDI\AppData\Local\Temp\ccOQxQHj.o
 .reginfo       0x0000000000000000       0x18 C:\Users\031379~1.FDI\AppData\Local\Temp\ccOQxQHj.o
 .MIPS.abiflags
                0x0000000000000000       0x18 C:\Users\031379~1.FDI\AppData\Local\Temp\ccOQxQHj.o
 .discard       0x0000000000000000        0x4 C:\Users\031379~1.FDI\AppData\Local\Temp\ccOQxQHj.o
 .data          0x0000000000000000        0x0 e:/program files (x86)/microchip/xc32/v4.10/bin/bin/../../lib/gcc/pic32mx/8.3.1/../../../../pic32mx/lib/fpu64\pic32_software_reset.o
 .bss           0x0000000000000000        0x0 e:/program files (x86)/microchip/xc32/v4.10/bin/bin/../../lib/gcc/pic32mx/8.3.1/../../../../pic32mx/lib/fpu64\pic32_software_reset.o
 .reginfo       0x0000000000000000       0x18 e:/program files (x86)/microchip/xc32/v4.10/bin/bin/../../lib/gcc/pic32mx/8.3.1/../../../../pic32mx/lib/fpu64\pic32_software_reset.o
 .MIPS.abiflags
                0x0000000000000000       0x18 e:/program files (x86)/microchip/xc32/v4.10/bin/bin/../../lib/gcc/pic32mx/8.3.1/../../../../pic32mx/lib/fpu64\pic32_software_reset.o
 .xc_stack_usage.hdr
                0x0000000000000000        0xe e:/program files (x86)/microchip/xc32/v4.10/bin/bin/../../lib/gcc/pic32mx/8.3.1/../../../../pic32mx/lib/fpu64\pic32_software_reset.o
 .xc_stack_usage
                0x0000000000000000       0x24 e:/program files (x86)/microchip/xc32/v4.10/bin/bin/../../lib/gcc/pic32mx/8.3.1/../../../../pic32mx/lib/fpu64\pic32_software_reset.o
 .data          0x0000000000000000        0x0 e:/program files (x86)/microchip/xc32/v4.10/bin/bin/../../lib/gcc/pic32mx/8.3.1/../../../../pic32mx/lib/fpu64\libpic32.a(memcpy.o)
 .bss           0x0000000000000000        0x0 e:/program files (x86)/microchip/xc32/v4.10/bin/bin/../../lib/gcc/pic32mx/8.3.1/../../../../pic32mx/lib/fpu64\libpic32.a(memcpy.o)
 .reginfo       0x0000000000000000       0x18 e:/program files (x86)/microchip/xc32/v4.10/bin/bin/../../lib/gcc/pic32mx/8.3.1/../../../../pic32mx/lib/fpu64\libpic32.a(memcpy.o)
 .MIPS.abiflags
                0x0000000000000000       0x18 e:/program files (x86)/microchip/xc32/v4.10/bin/bin/../../lib/gcc/pic32mx/8.3.1/../../../../pic32mx/lib/fpu64\libpic32.a(memcpy.o)
 .xc_stack_usage.hdr
                0x0000000000000000        0xe e:/program files (x86)/microchip/xc32/v4.10/bin/bin/../../lib/gcc/pic32mx/8.3.1/../../../../pic32mx/lib/fpu64\libpic32.a(memcpy.o)
 .xc_stack_usage
                0x0000000000000000       0x14 e:/program files (x86)/microchip/xc32/v4.10/bin/bin/../../lib/gcc/pic32mx/8.3.1/../../../../pic32mx/lib/fpu64\libpic32.a(memcpy.o)
 .data          0x0000000000000000        0x0 e:/program files (x86)/microchip/xc32/v4.10/bin/bin/../../lib/gcc/pic32mx/8.3.1/../../../../pic32mx/lib/fpu64\libpic32.a(memset.o)
 .bss           0x0000000000000000        0x0 e:/program files (x86)/microchip/xc32/v4.10/bin/bin/../../lib/gcc/pic32mx/8.3.1/../../../../pic32mx/lib/fpu64\libpic32.a(memset.o)
 .reginfo       0x0000000000000000       0x18 e:/program files (x86)/microchip/xc32/v4.10/bin/bin/../../lib/gcc/pic32mx/8.3.1/../../../../pic32mx/lib/fpu64\libpic32.a(memset.o)
 .MIPS.abiflags
                0x0000000000000000       0x18 e:/program files (x86)/microchip/xc32/v4.10/bin/bin/../../lib/gcc/pic32mx/8.3.1/../../../../pic32mx/lib/fpu64\libpic32.a(memset.o)
 .xc_stack_usage.hdr
                0x0000000000000000        0xe e:/program files (x86)/microchip/xc32/v4.10/bin/bin/../../lib/gcc/pic32mx/8.3.1/../../../../pic32mx/lib/fpu64\libpic32.a(memset.o)
 .xc_stack_usage
                0x0000000000000000       0x14 e:/program files (x86)/microchip/xc32/v4.10/bin/bin/../../lib/gcc/pic32mx/8.3.1/../../../../pic32mx/lib/fpu64\libpic32.a(memset.o)
 .text          0x0000000000000000        0x0 e:/program files (x86)/microchip/xc32/v4.10/bin/bin/../../lib/gcc/pic32mx/8.3.1/../../../../pic32mx/lib/fpu64\libpic32.a(default-on-reset.o)
 .data          0x0000000000000000        0x0 e:/program files (x86)/microchip/xc32/v4.10/bin/bin/../../lib/gcc/pic32mx/8.3.1/../../../../pic32mx/lib/fpu64\libpic32.a(default-on-reset.o)
 .bss           0x0000000000000000        0x0 e:/program files (x86)/microchip/xc32/v4.10/bin/bin/../../lib/gcc/pic32mx/8.3.1/../../../../pic32mx/lib/fpu64\libpic32.a(default-on-reset.o)
 .reginfo       0x0000000000000000       0x18 e:/program files (x86)/microchip/xc32/v4.10/bin/bin/../../lib/gcc/pic32mx/8.3.1/../../../../pic32mx/lib/fpu64\libpic32.a(default-on-reset.o)
 .MIPS.abiflags
                0x0000000000000000       0x18 e:/program files (x86)/microchip/xc32/v4.10/bin/bin/../../lib/gcc/pic32mx/8.3.1/../../../../pic32mx/lib/fpu64\libpic32.a(default-on-reset.o)
 .xc_stack_usage
                0x0000000000000000       0x17 e:/program files (x86)/microchip/xc32/v4.10/bin/bin/../../lib/gcc/pic32mx/8.3.1/../../../../pic32mx/lib/fpu64\libpic32.a(default-on-reset.o)
 .xc_stack_usage.hdr
                0x0000000000000000        0xe e:/program files (x86)/microchip/xc32/v4.10/bin/bin/../../lib/gcc/pic32mx/8.3.1/../../../../pic32mx/lib/fpu64\libpic32.a(default-on-reset.o)
 .text          0x0000000000000000        0x0 e:/program files (x86)/microchip/xc32/v4.10/bin/bin/../../lib/gcc/pic32mx/8.3.1/../../../../pic32mx/lib/fpu64\libpic32.a(default-on-bootstrap.o)
 .data          0x0000000000000000        0x0 e:/program files (x86)/microchip/xc32/v4.10/bin/bin/../../lib/gcc/pic32mx/8.3.1/../../../../pic32mx/lib/fpu64\libpic32.a(default-on-bootstrap.o)
 .bss           0x0000000000000000        0x0 e:/program files (x86)/microchip/xc32/v4.10/bin/bin/../../lib/gcc/pic32mx/8.3.1/../../../../pic32mx/lib/fpu64\libpic32.a(default-on-bootstrap.o)
 .reginfo       0x0000000000000000       0x18 e:/program files (x86)/microchip/xc32/v4.10/bin/bin/../../lib/gcc/pic32mx/8.3.1/../../../../pic32mx/lib/fpu64\libpic32.a(default-on-bootstrap.o)
 .MIPS.abiflags
                0x0000000000000000       0x18 e:/program files (x86)/microchip/xc32/v4.10/bin/bin/../../lib/gcc/pic32mx/8.3.1/../../../../pic32mx/lib/fpu64\libpic32.a(default-on-bootstrap.o)
 .xc_stack_usage
                0x0000000000000000       0x1b e:/program files (x86)/microchip/xc32/v4.10/bin/bin/../../lib/gcc/pic32mx/8.3.1/../../../../pic32mx/lib/fpu64\libpic32.a(default-on-bootstrap.o)
 .xc_stack_usage.hdr
                0x0000000000000000        0xe e:/program files (x86)/microchip/xc32/v4.10/bin/bin/../../lib/gcc/pic32mx/8.3.1/../../../../pic32mx/lib/fpu64\libpic32.a(default-on-bootstrap.o)
 .data          0x0000000000000000        0x0 e:/program files (x86)/microchip/xc32/v4.10/bin/bin/../../lib/gcc/pic32mx/8.3.1/../../../../pic32mx/lib/fpu64\libpic32.a(default-nmi-handler.o)
 .bss           0x0000000000000000        0x0 e:/program files (x86)/microchip/xc32/v4.10/bin/bin/../../lib/gcc/pic32mx/8.3.1/../../../../pic32mx/lib/fpu64\libpic32.a(default-nmi-handler.o)
 .reginfo       0x0000000000000000       0x18 e:/program files (x86)/microchip/xc32/v4.10/bin/bin/../../lib/gcc/pic32mx/8.3.1/../../../../pic32mx/lib/fpu64\libpic32.a(default-nmi-handler.o)
 .MIPS.abiflags
                0x0000000000000000       0x18 e:/program files (x86)/microchip/xc32/v4.10/bin/bin/../../lib/gcc/pic32mx/8.3.1/../../../../pic32mx/lib/fpu64\libpic32.a(default-nmi-handler.o)
 .xc_stack_usage.hdr
                0x0000000000000000        0xe e:/program files (x86)/microchip/xc32/v4.10/bin/bin/../../lib/gcc/pic32mx/8.3.1/../../../../pic32mx/lib/fpu64\libpic32.a(default-nmi-handler.o)
 .xc_stack_usage
                0x0000000000000000       0x1a e:/program files (x86)/microchip/xc32/v4.10/bin/bin/../../lib/gcc/pic32mx/8.3.1/../../../../pic32mx/lib/fpu64\libpic32.a(default-nmi-handler.o)
 .data          0x0000000000000000        0x0 e:/program files (x86)/microchip/xc32/v4.10/bin/bin/../../lib/gcc/pic32mx/8.3.1/../../../../pic32mx/lib/fpu64\libpic32.a(pic32_data_init.o)
 .bss           0x0000000000000000        0x0 e:/program files (x86)/microchip/xc32/v4.10/bin/bin/../../lib/gcc/pic32mx/8.3.1/../../../../pic32mx/lib/fpu64\libpic32.a(pic32_data_init.o)
 .reginfo       0x0000000000000000       0x18 e:/program files (x86)/microchip/xc32/v4.10/bin/bin/../../lib/gcc/pic32mx/8.3.1/../../../../pic32mx/lib/fpu64\libpic32.a(pic32_data_init.o)
 .MIPS.abiflags
                0x0000000000000000       0x18 e:/program files (x86)/microchip/xc32/v4.10/bin/bin/../../lib/gcc/pic32mx/8.3.1/../../../../pic32mx/lib/fpu64\libpic32.a(pic32_data_init.o)
 .xc_stack_usage.hdr
                0x0000000000000000        0xe e:/program files (x86)/microchip/xc32/v4.10/bin/bin/../../lib/gcc/pic32mx/8.3.1/../../../../pic32mx/lib/fpu64\libpic32.a(pic32_data_init.o)
 .xc_stack_usage
                0x0000000000000000       0x1f e:/program files (x86)/microchip/xc32/v4.10/bin/bin/../../lib/gcc/pic32mx/8.3.1/../../../../pic32mx/lib/fpu64\libpic32.a(pic32_data_init.o)
 .text          0x0000000000000000        0x0 e:/program files (x86)/microchip/xc32/v4.10/bin/bin/../../lib/gcc/pic32mx/8.3.1/../../../../pic32mx/lib/fpu64\libpic32.a(general-exception.o)
 .data          0x0000000000000000        0x0 e:/program files (x86)/microchip/xc32/v4.10/bin/bin/../../lib/gcc/pic32mx/8.3.1/../../../../pic32mx/lib/fpu64\libpic32.a(general-exception.o)
 .bss           0x0000000000000000        0x0 e:/program files (x86)/microchip/xc32/v4.10/bin/bin/../../lib/gcc/pic32mx/8.3.1/../../../../pic32mx/lib/fpu64\libpic32.a(general-exception.o)
 .reginfo       0x0000000000000000       0x18 e:/program files (x86)/microchip/xc32/v4.10/bin/bin/../../lib/gcc/pic32mx/8.3.1/../../../../pic32mx/lib/fpu64\libpic32.a(general-exception.o)
 .MIPS.abiflags
                0x0000000000000000       0x18 e:/program files (x86)/microchip/xc32/v4.10/bin/bin/../../lib/gcc/pic32mx/8.3.1/../../../../pic32mx/lib/fpu64\libpic32.a(general-exception.o)
 .xc_stack_usage.hdr
                0x0000000000000000        0xe e:/program files (x86)/microchip/xc32/v4.10/bin/bin/../../lib/gcc/pic32mx/8.3.1/../../../../pic32mx/lib/fpu64\libpic32.a(general-exception.o)
 .xc_stack_usage
                0x0000000000000000       0x28 e:/program files (x86)/microchip/xc32/v4.10/bin/bin/../../lib/gcc/pic32mx/8.3.1/../../../../pic32mx/lib/fpu64\libpic32.a(general-exception.o)
 .text          0x0000000000000000        0x0 e:/program files (x86)/microchip/xc32/v4.10/bin/bin/../../lib/gcc/pic32mx/8.3.1/../../../../pic32mx/lib/fpu64\libpic32.a(defaultinterrupt.o)
 .data          0x0000000000000000        0x0 e:/program files (x86)/microchip/xc32/v4.10/bin/bin/../../lib/gcc/pic32mx/8.3.1/../../../../pic32mx/lib/fpu64\libpic32.a(defaultinterrupt.o)
 .bss           0x0000000000000000        0x0 e:/program files (x86)/microchip/xc32/v4.10/bin/bin/../../lib/gcc/pic32mx/8.3.1/../../../../pic32mx/lib/fpu64\libpic32.a(defaultinterrupt.o)
 .reginfo       0x0000000000000000       0x18 e:/program files (x86)/microchip/xc32/v4.10/bin/bin/../../lib/gcc/pic32mx/8.3.1/../../../../pic32mx/lib/fpu64\libpic32.a(defaultinterrupt.o)
 .MIPS.abiflags
                0x0000000000000000       0x18 e:/program files (x86)/microchip/xc32/v4.10/bin/bin/../../lib/gcc/pic32mx/8.3.1/../../../../pic32mx/lib/fpu64\libpic32.a(defaultinterrupt.o)
 .xc_stack_usage
                0x0000000000000000       0x1f e:/program files (x86)/microchip/xc32/v4.10/bin/bin/../../lib/gcc/pic32mx/8.3.1/../../../../pic32mx/lib/fpu64\libpic32.a(defaultinterrupt.o)
 .xc_stack_usage.hdr
                0x0000000000000000        0xe e:/program files (x86)/microchip/xc32/v4.10/bin/bin/../../lib/gcc/pic32mx/8.3.1/../../../../pic32mx/lib/fpu64\libpic32.a(defaultinterrupt.o)
 .text          0x0000000000000000        0x0 e:/program files (x86)/microchip/xc32/v4.10/bin/bin/../../lib/gcc/pic32mx/8.3.1/../../../../pic32mx/lib/fpu64\libm-musl.a(cosf.o)
 .data          0x0000000000000000        0x0 e:/program files (x86)/microchip/xc32/v4.10/bin/bin/../../lib/gcc/pic32mx/8.3.1/../../../../pic32mx/lib/fpu64\libm-musl.a(cosf.o)
 .bss           0x0000000000000000        0x0 e:/program files (x86)/microchip/xc32/v4.10/bin/bin/../../lib/gcc/pic32mx/8.3.1/../../../../pic32mx/lib/fpu64\libm-musl.a(cosf.o)
 .reginfo       0x0000000000000000       0x18 e:/program files (x86)/microchip/xc32/v4.10/bin/bin/../../lib/gcc/pic32mx/8.3.1/../../../../pic32mx/lib/fpu64\libm-musl.a(cosf.o)
 .MIPS.abiflags
                0x0000000000000000       0x18 e:/program files (x86)/microchip/xc32/v4.10/bin/bin/../../lib/gcc/pic32mx/8.3.1/../../../../pic32mx/lib/fpu64\libm-musl.a(cosf.o)
 .xc_stack_usage
                0x0000000000000000       0x12 e:/program files (x86)/microchip/xc32/v4.10/bin/bin/../../lib/gcc/pic32mx/8.3.1/../../../../pic32mx/lib/fpu64\libm-musl.a(cosf.o)
 .xc_stack_usage.hdr
                0x0000000000000000        0xe e:/program files (x86)/microchip/xc32/v4.10/bin/bin/../../lib/gcc/pic32mx/8.3.1/../../../../pic32mx/lib/fpu64\libm-musl.a(cosf.o)
 .note.GNU-stack
                0x0000000000000000        0x0 e:/program files (x86)/microchip/xc32/v4.10/bin/bin/../../lib/gcc/pic32mx/8.3.1/../../../../pic32mx/lib/fpu64\libm-musl.a(cosf.o)
 .text          0x0000000000000000        0x0 e:/program files (x86)/microchip/xc32/v4.10/bin/bin/../../lib/gcc/pic32mx/8.3.1/../../../../pic32mx/lib/fpu64\libm-musl.a(expf.o)
 .data          0x0000000000000000        0x0 e:/program files (x86)/microchip/xc32/v4.10/bin/bin/../../lib/gcc/pic32mx/8.3.1/../../../../pic32mx/lib/fpu64\libm-musl.a(expf.o)
 .bss           0x0000000000000000        0x0 e:/program files (x86)/microchip/xc32/v4.10/bin/bin/../../lib/gcc/pic32mx/8.3.1/../../../../pic32mx/lib/fpu64\libm-musl.a(expf.o)
 .reginfo       0x0000000000000000       0x18 e:/program files (x86)/microchip/xc32/v4.10/bin/bin/../../lib/gcc/pic32mx/8.3.1/../../../../pic32mx/lib/fpu64\libm-musl.a(expf.o)
 .MIPS.abiflags
                0x0000000000000000       0x18 e:/program files (x86)/microchip/xc32/v4.10/bin/bin/../../lib/gcc/pic32mx/8.3.1/../../../../pic32mx/lib/fpu64\libm-musl.a(expf.o)
 .xc_stack_usage
                0x0000000000000000       0x12 e:/program files (x86)/microchip/xc32/v4.10/bin/bin/../../lib/gcc/pic32mx/8.3.1/../../../../pic32mx/lib/fpu64\libm-musl.a(expf.o)
 .xc_stack_usage.hdr
                0x0000000000000000        0xe e:/program files (x86)/microchip/xc32/v4.10/bin/bin/../../lib/gcc/pic32mx/8.3.1/../../../../pic32mx/lib/fpu64\libm-musl.a(expf.o)
 .note.GNU-stack
                0x0000000000000000        0x0 e:/program files (x86)/microchip/xc32/v4.10/bin/bin/../../lib/gcc/pic32mx/8.3.1/../../../../pic32mx/lib/fpu64\libm-musl.a(expf.o)
 .text          0x0000000000000000        0x0 e:/program files (x86)/microchip/xc32/v4.10/bin/bin/../../lib/gcc/pic32mx/8.3.1/../../../../pic32mx/lib/fpu64\libm-musl.a(log.o)
 .data          0x0000000000000000        0x0 e:/program files (x86)/microchip/xc32/v4.10/bin/bin/../../lib/gcc/pic32mx/8.3.1/../../../../pic32mx/lib/fpu64\libm-musl.a(log.o)
 .bss           0x0000000000000000        0x0 e:/program files (x86)/microchip/xc32/v4.10/bin/bin/../../lib/gcc/pic32mx/8.3.1/../../../../pic32mx/lib/fpu64\libm-musl.a(log.o)
 .reginfo       0x0000000000000000       0x18 e:/program files (x86)/microchip/xc32/v4.10/bin/bin/../../lib/gcc/pic32mx/8.3.1/../../../../pic32mx/lib/fpu64\libm-musl.a(log.o)
 .MIPS.abiflags
                0x0000000000000000       0x18 e:/program files (x86)/microchip/xc32/v4.10/bin/bin/../../lib/gcc/pic32mx/8.3.1/../../../../pic32mx/lib/fpu64\libm-musl.a(log.o)
 .xc_stack_usage
                0x0000000000000000       0x11 e:/program files (x86)/microchip/xc32/v4.10/bin/bin/../../lib/gcc/pic32mx/8.3.1/../../../../pic32mx/lib/fpu64\libm-musl.a(log.o)
 .xc_stack_usage.hdr
                0x0000000000000000        0xe e:/program files (x86)/microchip/xc32/v4.10/bin/bin/../../lib/gcc/pic32mx/8.3.1/../../../../pic32mx/lib/fpu64\libm-musl.a(log.o)
 .note.GNU-stack
                0x0000000000000000        0x0 e:/program files (x86)/microchip/xc32/v4.10/bin/bin/../../lib/gcc/pic32mx/8.3.1/../../../../pic32mx/lib/fpu64\libm-musl.a(log.o)
 .text          0x0000000000000000        0x0 e:/program files (x86)/microchip/xc32/v4.10/bin/bin/../../lib/gcc/pic32mx/8.3.1/../../../../pic32mx/lib/fpu64\libm-musl.a(scalbnf.o)
 .data          0x0000000000000000        0x0 e:/program files (x86)/microchip/xc32/v4.10/bin/bin/../../lib/gcc/pic32mx/8.3.1/../../../../pic32mx/lib/fpu64\libm-musl.a(scalbnf.o)
 .bss           0x0000000000000000        0x0 e:/program files (x86)/microchip/xc32/v4.10/bin/bin/../../lib/gcc/pic32mx/8.3.1/../../../../pic32mx/lib/fpu64\libm-musl.a(scalbnf.o)
 .reginfo       0x0000000000000000       0x18 e:/program files (x86)/microchip/xc32/v4.10/bin/bin/../../lib/gcc/pic32mx/8.3.1/../../../../pic32mx/lib/fpu64\libm-musl.a(scalbnf.o)
 .MIPS.abiflags
                0x0000000000000000       0x18 e:/program files (x86)/microchip/xc32/v4.10/bin/bin/../../lib/gcc/pic32mx/8.3.1/../../../../pic32mx/lib/fpu64\libm-musl.a(scalbnf.o)
 .xc_stack_usage
                0x0000000000000000       0x15 e:/program files (x86)/microchip/xc32/v4.10/bin/bin/../../lib/gcc/pic32mx/8.3.1/../../../../pic32mx/lib/fpu64\libm-musl.a(scalbnf.o)
 .xc_stack_usage.hdr
                0x0000000000000000        0xe e:/program files (x86)/microchip/xc32/v4.10/bin/bin/../../lib/gcc/pic32mx/8.3.1/../../../../pic32mx/lib/fpu64\libm-musl.a(scalbnf.o)
 .note.GNU-stack
                0x0000000000000000        0x0 e:/program files (x86)/microchip/xc32/v4.10/bin/bin/../../lib/gcc/pic32mx/8.3.1/../../../../pic32mx/lib/fpu64\libm-musl.a(scalbnf.o)
 .text          0x0000000000000000        0x0 e:/program files (x86)/microchip/xc32/v4.10/bin/bin/../../lib/gcc/pic32mx/8.3.1/../../../../pic32mx/lib/fpu64\libm-musl.a(sinf.o)
 .data          0x0000000000000000        0x0 e:/program files (x86)/microchip/xc32/v4.10/bin/bin/../../lib/gcc/pic32mx/8.3.1/../../../../pic32mx/lib/fpu64\libm-musl.a(sinf.o)
 .bss           0x0000000000000000        0x0 e:/program files (x86)/microchip/xc32/v4.10/bin/bin/../../lib/gcc/pic32mx/8.3.1/../../../../pic32mx/lib/fpu64\libm-musl.a(sinf.o)
 .reginfo       0x0000000000000000       0x18 e:/program files (x86)/microchip/xc32/v4.10/bin/bin/../../lib/gcc/pic32mx/8.3.1/../../../../pic32mx/lib/fpu64\libm-musl.a(sinf.o)
 .MIPS.abiflags
                0x0000000000000000       0x18 e:/program files (x86)/microchip/xc32/v4.10/bin/bin/../../lib/gcc/pic32mx/8.3.1/../../../../pic32mx/lib/fpu64\libm-musl.a(sinf.o)
 .xc_stack_usage
                0x0000000000000000       0x12 e:/program files (x86)/microchip/xc32/v4.10/bin/bin/../../lib/gcc/pic32mx/8.3.1/../../../../pic32mx/lib/fpu64\libm-musl.a(sinf.o)
 .xc_stack_usage.hdr
                0x0000000000000000        0xe e:/program files (x86)/microchip/xc32/v4.10/bin/bin/../../lib/gcc/pic32mx/8.3.1/../../../../pic32mx/lib/fpu64\libm-musl.a(sinf.o)
 .note.GNU-stack
                0x0000000000000000        0x0 e:/program files (x86)/microchip/xc32/v4.10/bin/bin/../../lib/gcc/pic32mx/8.3.1/../../../../pic32mx/lib/fpu64\libm-musl.a(sinf.o)
 .text          0x0000000000000000        0x0 e:/program files (x86)/microchip/xc32/v4.10/bin/bin/../../lib/gcc/pic32mx/8.3.1/../../../../pic32mx/lib/fpu64\libm-musl.a(sqrtf.o)
 .data          0x0000000000000000        0x0 e:/program files (x86)/microchip/xc32/v4.10/bin/bin/../../lib/gcc/pic32mx/8.3.1/../../../../pic32mx/lib/fpu64\libm-musl.a(sqrtf.o)
 .bss           0x0000000000000000        0x0 e:/program files (x86)/microchip/xc32/v4.10/bin/bin/../../lib/gcc/pic32mx/8.3.1/../../../../pic32mx/lib/fpu64\libm-musl.a(sqrtf.o)
 .reginfo       0x0000000000000000       0x18 e:/program files (x86)/microchip/xc32/v4.10/bin/bin/../../lib/gcc/pic32mx/8.3.1/../../../../pic32mx/lib/fpu64\libm-musl.a(sqrtf.o)
 .MIPS.abiflags
                0x0000000000000000       0x18 e:/program files (x86)/microchip/xc32/v4.10/bin/bin/../../lib/gcc/pic32mx/8.3.1/../../../../pic32mx/lib/fpu64\libm-musl.a(sqrtf.o)
 .xc_stack_usage
                0x0000000000000000       0x13 e:/program files (x86)/microchip/xc32/v4.10/bin/bin/../../lib/gcc/pic32mx/8.3.1/../../../../pic32mx/lib/fpu64\libm-musl.a(sqrtf.o)
 .xc_stack_usage.hdr
                0x0000000000000000        0xe e:/program files (x86)/microchip/xc32/v4.10/bin/bin/../../lib/gcc/pic32mx/8.3.1/../../../../pic32mx/lib/fpu64\libm-musl.a(sqrtf.o)
 .note.GNU-stack
                0x0000000000000000        0x0 e:/program files (x86)/microchip/xc32/v4.10/bin/bin/../../lib/gcc/pic32mx/8.3.1/../../../../pic32mx/lib/fpu64\libm-musl.a(sqrtf.o)
 .text          0x0000000000000000        0x0 e:/program files (x86)/microchip/xc32/v4.10/bin/bin/../../lib/gcc/pic32mx/8.3.1/../../../../pic32mx/lib/fpu64\libm-musl.a(__cosdf.o)
 .data          0x0000000000000000        0x0 e:/program files (x86)/microchip/xc32/v4.10/bin/bin/../../lib/gcc/pic32mx/8.3.1/../../../../pic32mx/lib/fpu64\libm-musl.a(__cosdf.o)
 .bss           0x0000000000000000        0x0 e:/program files (x86)/microchip/xc32/v4.10/bin/bin/../../lib/gcc/pic32mx/8.3.1/../../../../pic32mx/lib/fpu64\libm-musl.a(__cosdf.o)
 .reginfo       0x0000000000000000       0x18 e:/program files (x86)/microchip/xc32/v4.10/bin/bin/../../lib/gcc/pic32mx/8.3.1/../../../../pic32mx/lib/fpu64\libm-musl.a(__cosdf.o)
 .MIPS.abiflags
                0x0000000000000000       0x18 e:/program files (x86)/microchip/xc32/v4.10/bin/bin/../../lib/gcc/pic32mx/8.3.1/../../../../pic32mx/lib/fpu64\libm-musl.a(__cosdf.o)
 .xc_stack_usage
                0x0000000000000000       0x15 e:/program files (x86)/microchip/xc32/v4.10/bin/bin/../../lib/gcc/pic32mx/8.3.1/../../../../pic32mx/lib/fpu64\libm-musl.a(__cosdf.o)
 .xc_stack_usage.hdr
                0x0000000000000000        0xe e:/program files (x86)/microchip/xc32/v4.10/bin/bin/../../lib/gcc/pic32mx/8.3.1/../../../../pic32mx/lib/fpu64\libm-musl.a(__cosdf.o)
 .note.GNU-stack
                0x0000000000000000        0x0 e:/program files (x86)/microchip/xc32/v4.10/bin/bin/../../lib/gcc/pic32mx/8.3.1/../../../../pic32mx/lib/fpu64\libm-musl.a(__cosdf.o)
 .text          0x0000000000000000        0x0 e:/program files (x86)/microchip/xc32/v4.10/bin/bin/../../lib/gcc/pic32mx/8.3.1/../../../../pic32mx/lib/fpu64\libm-musl.a(__rem_pio2f.o)
 .data          0x0000000000000000        0x0 e:/program files (x86)/microchip/xc32/v4.10/bin/bin/../../lib/gcc/pic32mx/8.3.1/../../../../pic32mx/lib/fpu64\libm-musl.a(__rem_pio2f.o)
 .bss           0x0000000000000000        0x0 e:/program files (x86)/microchip/xc32/v4.10/bin/bin/../../lib/gcc/pic32mx/8.3.1/../../../../pic32mx/lib/fpu64\libm-musl.a(__rem_pio2f.o)
 .reginfo       0x0000000000000000       0x18 e:/program files (x86)/microchip/xc32/v4.10/bin/bin/../../lib/gcc/pic32mx/8.3.1/../../../../pic32mx/lib/fpu64\libm-musl.a(__rem_pio2f.o)
 .MIPS.abiflags
                0x0000000000000000       0x18 e:/program files (x86)/microchip/xc32/v4.10/bin/bin/../../lib/gcc/pic32mx/8.3.1/../../../../pic32mx/lib/fpu64\libm-musl.a(__rem_pio2f.o)
 .xc_stack_usage
                0x0000000000000000       0x19 e:/program files (x86)/microchip/xc32/v4.10/bin/bin/../../lib/gcc/pic32mx/8.3.1/../../../../pic32mx/lib/fpu64\libm-musl.a(__rem_pio2f.o)
 .xc_stack_usage.hdr
                0x0000000000000000        0xe e:/program files (x86)/microchip/xc32/v4.10/bin/bin/../../lib/gcc/pic32mx/8.3.1/../../../../pic32mx/lib/fpu64\libm-musl.a(__rem_pio2f.o)
 .note.GNU-stack
                0x0000000000000000        0x0 e:/program files (x86)/microchip/xc32/v4.10/bin/bin/../../lib/gcc/pic32mx/8.3.1/../../../../pic32mx/lib/fpu64\libm-musl.a(__rem_pio2f.o)
 .text          0x0000000000000000        0x0 e:/program files (x86)/microchip/xc32/v4.10/bin/bin/../../lib/gcc/pic32mx/8.3.1/../../../../pic32mx/lib/fpu64\libm-musl.a(__sindf.o)
 .data          0x0000000000000000        0x0 e:/program files (x86)/microchip/xc32/v4.10/bin/bin/../../lib/gcc/pic32mx/8.3.1/../../../../pic32mx/lib/fpu64\libm-musl.a(__sindf.o)
 .bss           0x0000000000000000        0x0 e:/program files (x86)/microchip/xc32/v4.10/bin/bin/../../lib/gcc/pic32mx/8.3.1/../../../../pic32mx/lib/fpu64\libm-musl.a(__sindf.o)
 .reginfo       0x0000000000000000       0x18 e:/program files (x86)/microchip/xc32/v4.10/bin/bin/../../lib/gcc/pic32mx/8.3.1/../../../../pic32mx/lib/fpu64\libm-musl.a(__sindf.o)
 .MIPS.abiflags
                0x0000000000000000       0x18 e:/program files (x86)/microchip/xc32/v4.10/bin/bin/../../lib/gcc/pic32mx/8.3.1/../../../../pic32mx/lib/fpu64\libm-musl.a(__sindf.o)
 .xc_stack_usage
                0x0000000000000000       0x15 e:/program files (x86)/microchip/xc32/v4.10/bin/bin/../../lib/gcc/pic32mx/8.3.1/../../../../pic32mx/lib/fpu64\libm-musl.a(__sindf.o)
 .xc_stack_usage.hdr
                0x0000000000000000        0xe e:/program files (x86)/microchip/xc32/v4.10/bin/bin/../../lib/gcc/pic32mx/8.3.1/../../../../pic32mx/lib/fpu64\libm-musl.a(__sindf.o)
 .note.GNU-stack
                0x0000000000000000        0x0 e:/program files (x86)/microchip/xc32/v4.10/bin/bin/../../lib/gcc/pic32mx/8.3.1/../../../../pic32mx/lib/fpu64\libm-musl.a(__sindf.o)
 .text          0x0000000000000000        0x0 e:/program files (x86)/microchip/xc32/v4.10/bin/bin/../../lib/gcc/pic32mx/8.3.1/../../../../pic32mx/lib/fpu64\libm-musl.a(__rem_pio2_large.o)
 .data          0x0000000000000000        0x0 e:/program files (x86)/microchip/xc32/v4.10/bin/bin/../../lib/gcc/pic32mx/8.3.1/../../../../pic32mx/lib/fpu64\libm-musl.a(__rem_pio2_large.o)
 .bss           0x0000000000000000        0x0 e:/program files (x86)/microchip/xc32/v4.10/bin/bin/../../lib/gcc/pic32mx/8.3.1/../../../../pic32mx/lib/fpu64\libm-musl.a(__rem_pio2_large.o)
 .reginfo       0x0000000000000000       0x18 e:/program files (x86)/microchip/xc32/v4.10/bin/bin/../../lib/gcc/pic32mx/8.3.1/../../../../pic32mx/lib/fpu64\libm-musl.a(__rem_pio2_large.o)
 .MIPS.abiflags
                0x0000000000000000       0x18 e:/program files (x86)/microchip/xc32/v4.10/bin/bin/../../lib/gcc/pic32mx/8.3.1/../../../../pic32mx/lib/fpu64\libm-musl.a(__rem_pio2_large.o)
 .xc_stack_usage
                0x0000000000000000       0x1e e:/program files (x86)/microchip/xc32/v4.10/bin/bin/../../lib/gcc/pic32mx/8.3.1/../../../../pic32mx/lib/fpu64\libm-musl.a(__rem_pio2_large.o)
 .xc_stack_usage.hdr
                0x0000000000000000        0xe e:/program files (x86)/microchip/xc32/v4.10/bin/bin/../../lib/gcc/pic32mx/8.3.1/../../../../pic32mx/lib/fpu64\libm-musl.a(__rem_pio2_large.o)
 .note.GNU-stack
                0x0000000000000000        0x0 e:/program files (x86)/microchip/xc32/v4.10/bin/bin/../../lib/gcc/pic32mx/8.3.1/../../../../pic32mx/lib/fpu64\libm-musl.a(__rem_pio2_large.o)
 .text          0x0000000000000000        0x0 e:/program files (x86)/microchip/xc32/v4.10/bin/bin/../../lib/gcc/pic32mx/8.3.1/../../../../pic32mx/lib/fpu64\libm-musl.a(floor.o)
 .data          0x0000000000000000        0x0 e:/program files (x86)/microchip/xc32/v4.10/bin/bin/../../lib/gcc/pic32mx/8.3.1/../../../../pic32mx/lib/fpu64\libm-musl.a(floor.o)
 .bss           0x0000000000000000        0x0 e:/program files (x86)/microchip/xc32/v4.10/bin/bin/../../lib/gcc/pic32mx/8.3.1/../../../../pic32mx/lib/fpu64\libm-musl.a(floor.o)
 .reginfo       0x0000000000000000       0x18 e:/program files (x86)/microchip/xc32/v4.10/bin/bin/../../lib/gcc/pic32mx/8.3.1/../../../../pic32mx/lib/fpu64\libm-musl.a(floor.o)
 .MIPS.abiflags
                0x0000000000000000       0x18 e:/program files (x86)/microchip/xc32/v4.10/bin/bin/../../lib/gcc/pic32mx/8.3.1/../../../../pic32mx/lib/fpu64\libm-musl.a(floor.o)
 .xc_stack_usage
                0x0000000000000000       0x13 e:/program files (x86)/microchip/xc32/v4.10/bin/bin/../../lib/gcc/pic32mx/8.3.1/../../../../pic32mx/lib/fpu64\libm-musl.a(floor.o)
 .xc_stack_usage.hdr
                0x0000000000000000        0xe e:/program files (x86)/microchip/xc32/v4.10/bin/bin/../../lib/gcc/pic32mx/8.3.1/../../../../pic32mx/lib/fpu64\libm-musl.a(floor.o)
 .note.GNU-stack
                0x0000000000000000        0x0 e:/program files (x86)/microchip/xc32/v4.10/bin/bin/../../lib/gcc/pic32mx/8.3.1/../../../../pic32mx/lib/fpu64\libm-musl.a(floor.o)
 .text          0x0000000000000000        0x0 e:/program files (x86)/microchip/xc32/v4.10/bin/bin/../../lib/gcc/pic32mx/8.3.1/../../../../pic32mx/lib/fpu64\libm-musl.a(scalbn.o)
 .data          0x0000000000000000        0x0 e:/program files (x86)/microchip/xc32/v4.10/bin/bin/../../lib/gcc/pic32mx/8.3.1/../../../../pic32mx/lib/fpu64\libm-musl.a(scalbn.o)
 .bss           0x0000000000000000        0x0 e:/program files (x86)/microchip/xc32/v4.10/bin/bin/../../lib/gcc/pic32mx/8.3.1/../../../../pic32mx/lib/fpu64\libm-musl.a(scalbn.o)
 .reginfo       0x0000000000000000       0x18 e:/program files (x86)/microchip/xc32/v4.10/bin/bin/../../lib/gcc/pic32mx/8.3.1/../../../../pic32mx/lib/fpu64\libm-musl.a(scalbn.o)
 .MIPS.abiflags
                0x0000000000000000       0x18 e:/program files (x86)/microchip/xc32/v4.10/bin/bin/../../lib/gcc/pic32mx/8.3.1/../../../../pic32mx/lib/fpu64\libm-musl.a(scalbn.o)
 .xc_stack_usage
                0x0000000000000000       0x14 e:/program files (x86)/microchip/xc32/v4.10/bin/bin/../../lib/gcc/pic32mx/8.3.1/../../../../pic32mx/lib/fpu64\libm-musl.a(scalbn.o)
 .xc_stack_usage.hdr
                0x0000000000000000        0xe e:/program files (x86)/microchip/xc32/v4.10/bin/bin/../../lib/gcc/pic32mx/8.3.1/../../../../pic32mx/lib/fpu64\libm-musl.a(scalbn.o)
 .note.GNU-stack
                0x0000000000000000        0x0 e:/program files (x86)/microchip/xc32/v4.10/bin/bin/../../lib/gcc/pic32mx/8.3.1/../../../../pic32mx/lib/fpu64\libm-musl.a(scalbn.o)
 .text          0x0000000000000000        0x0 e:/program files (x86)/microchip/xc32/v4.10/bin/bin/../../lib/gcc/pic32mx/8.3.1/../../../../pic32mx/lib/fpu64\libpic32.a(errno.o)
 .data          0x0000000000000000        0x0 e:/program files (x86)/microchip/xc32/v4.10/bin/bin/../../lib/gcc/pic32mx/8.3.1/../../../../pic32mx/lib/fpu64\libpic32.a(errno.o)
 .bss           0x0000000000000000        0x0 e:/program files (x86)/microchip/xc32/v4.10/bin/bin/../../lib/gcc/pic32mx/8.3.1/../../../../pic32mx/lib/fpu64\libpic32.a(errno.o)
 .reginfo       0x0000000000000000       0x18 e:/program files (x86)/microchip/xc32/v4.10/bin/bin/../../lib/gcc/pic32mx/8.3.1/../../../../pic32mx/lib/fpu64\libpic32.a(errno.o)
 .MIPS.abiflags
                0x0000000000000000       0x18 e:/program files (x86)/microchip/xc32/v4.10/bin/bin/../../lib/gcc/pic32mx/8.3.1/../../../../pic32mx/lib/fpu64\libpic32.a(errno.o)
 .xc_stack_usage.hdr
                0x0000000000000000        0xe e:/program files (x86)/microchip/xc32/v4.10/bin/bin/../../lib/gcc/pic32mx/8.3.1/../../../../pic32mx/lib/fpu64\libpic32.a(errno.o)

Memory Configuration

Name             Origin             Length             Attributes
kseg0_program_mem 0x000000009d000000 0x0000000000100000 xr
kseg0_boot_mem   0x000000009fc20490 0x0000000000000000
debug_exec_mem   0x000000009fc20490 0x0000000000003aa0
kseg1_boot_mem   0x00000000bfc00000 0x0000000000000480
kseg1_boot_mem_4B0 0x00000000bfc004b0 0x0000000000003a80
config_BFC03F40  0x00000000bfc03f40 0x0000000000000004
config_BFC03F44  0x00000000bfc03f44 0x0000000000000004
config_BFC03F48  0x00000000bfc03f48 0x0000000000000004
config_BFC03F4C  0x00000000bfc03f4c 0x0000000000000004
config_BFC03F5C  0x00000000bfc03f5c 0x0000000000000004
config_BFC03F6C  0x00000000bfc03f6c 0x0000000000000004
config_BFC03F70  0x00000000bfc03f70 0x0000000000000004
config_BFC03FC0  0x00000000bfc03fc0 0x0000000000000004
config_BFC03FC4  0x00000000bfc03fc4 0x0000000000000004
config_BFC03FC8  0x00000000bfc03fc8 0x0000000000000004
config_BFC03FCC  0x00000000bfc03fcc 0x0000000000000004
config_BFC03FDC  0x00000000bfc03fdc 0x0000000000000004
config_BFC03FEC  0x00000000bfc03fec 0x0000000000000004
config_BFC03FF0  0x00000000bfc03ff0 0x0000000000000004
lowerbootaliaslastpage 0x00000000bfc04000 0x0000000000001000
upperbootalias   0x00000000bfc20000 0x0000000000003f30
config_BFC23F40  0x00000000bfc23f40 0x0000000000000004
config_BFC23F44  0x00000000bfc23f44 0x0000000000000004
config_BFC23F48  0x00000000bfc23f48 0x0000000000000004
config_BFC23F4C  0x00000000bfc23f4c 0x0000000000000004
config_BFC23F5C  0x00000000bfc23f5c 0x0000000000000004
config_BFC23F6C  0x00000000bfc23f6c 0x0000000000000004
config_BFC23F70  0x00000000bfc23f70 0x0000000000000004
config_BFC23FC0  0x00000000bfc23fc0 0x0000000000000004
config_BFC23FC4  0x00000000bfc23fc4 0x0000000000000004
config_BFC23FC8  0x00000000bfc23fc8 0x0000000000000004
config_BFC23FCC  0x00000000bfc23fcc 0x0000000000000004
config_BFC23FDC  0x00000000bfc23fdc 0x0000000000000004
config_BFC23FEC  0x00000000bfc23fec 0x0000000000000004
config_BFC23FF0  0x00000000bfc23ff0 0x0000000000000004
upperbootaliaslastpage 0x00000000bfc24000 0x0000000000001000
boot1            0x00000000bfc40000 0x0000000000003f30
config_BFC43F40  0x00000000bfc43f40 0x0000000000000004
config_BFC43F44  0x00000000bfc43f44 0x0000000000000004
config_BFC43F48  0x00000000bfc43f48 0x0000000000000004
config_BFC43F4C  0x00000000bfc43f4c 0x0000000000000004
config_BFC43F5C  0x00000000bfc43f5c 0x0000000000000004
config_BFC43F6C  0x00000000bfc43f6c 0x0000000000000004
config_BFC43F70  0x00000000bfc43f70 0x0000000000000004
config_BFC43FC0  0x00000000bfc43fc0 0x0000000000000004
config_BFC43FC4  0x00000000bfc43fc4 0x0000000000000004
config_BFC43FC8  0x00000000bfc43fc8 0x0000000000000004
config_BFC43FCC  0x00000000bfc43fcc 0x0000000000000004
config_BFC43FDC  0x00000000bfc43fdc 0x0000000000000004
config_BFC43FEC  0x00000000bfc43fec 0x0000000000000004
config_BFC43FF0  0x00000000bfc43ff0 0x0000000000000004
boot1lastpage    0x00000000bfc44000 0x0000000000001000
config_BFC45000  0x00000000bfc45000 0x0000000000000004
config_BFC45004  0x00000000bfc45004 0x0000000000000004
config_BFC45008  0x00000000bfc45008 0x0000000000000004
config_BFC4500C  0x00000000bfc4500c 0x0000000000000004
config_BFC45010  0x00000000bfc45010 0x0000000000000004
config_BFC45014  0x00000000bfc45014 0x0000000000000004
config_BFC45018  0x00000000bfc45018 0x0000000000000004
config_BFC45020  0x00000000bfc45020 0x0000000000000004
config_BFC45024  0x00000000bfc45024 0x0000000000000004
config_BFC45028  0x00000000bfc45028 0x0000000000000004
config_BFC4502C  0x00000000bfc4502c 0x0000000000000004
config_BFC45030  0x00000000bfc45030 0x0000000000000004
config_BFC45034  0x00000000bfc45034 0x0000000000000004
config_BFC45038  0x00000000bfc45038 0x0000000000000004
config_BFC4503C  0x00000000bfc4503c 0x0000000000000004
boot2            0x00000000bfc60000 0x0000000000003f30
config_BFC63F40  0x00000000bfc63f40 0x0000000000000004
config_BFC63F44  0x00000000bfc63f44 0x0000000000000004
config_BFC63F48  0x00000000bfc63f48 0x0000000000000004
config_BFC63F4C  0x00000000bfc63f4c 0x0000000000000004
config_BFC63F5C  0x00000000bfc63f5c 0x0000000000000004
config_BFC63F6C  0x00000000bfc63f6c 0x0000000000000004
config_BFC63F70  0x00000000bfc63f70 0x0000000000000004
config_BFC63FC0  0x00000000bfc63fc0 0x0000000000000004
config_BFC63FC4  0x00000000bfc63fc4 0x0000000000000004
config_BFC63FC8  0x00000000bfc63fc8 0x0000000000000004
config_BFC63FCC  0x00000000bfc63fcc 0x0000000000000004
config_BFC63FDC  0x00000000bfc63fdc 0x0000000000000004
config_BFC63FEC  0x00000000bfc63fec 0x0000000000000004
config_BFC63FF0  0x00000000bfc63ff0 0x0000000000000004
boot2lastpage    0x00000000bfc64000 0x0000000000001000
kseg0_data_mem   0x0000000080000000 0x0000000000040000 w !x
sfrs             0x00000000bf800000 0x0000000000100000
configsfrs_BFC03F30 0x00000000bfc03f30 0x000000000000001c
configsfrs_BFC03FB0 0x00000000bfc03fb0 0x000000000000001c
configsfrs_BFC23F30 0x00000000bfc23f30 0x000000000000001c
configsfrs_BFC23FB0 0x00000000bfc23fb0 0x000000000000001c
configsfrs_BFC43F30 0x00000000bfc43f30 0x000000000000001c
configsfrs_BFC43FB0 0x00000000bfc43fb0 0x000000000000001c
configsfrs_BFC45000 0x00000000bfc45000 0x000000000000001c
configsfrs_BFC45020 0x00000000bfc45020 0x0000000000000010
configsfrs_BFC45030 0x00000000bfc45030 0x0000000000000010
configsfrs_BFC63F30 0x00000000bfc63f30 0x000000000000001c
configsfrs_BFC63FB0 0x00000000bfc63fb0 0x000000000000001c
*default*        0x0000000000000000 0xffffffffffffffff

Linker script and memory map

LOAD e:/program files (x86)/microchip/xc32/v4.10/bin/bin/../../lib/gcc/pic32mx/8.3.1/../../../../pic32mx/lib/fpu64\debug-exception-return.o
LOAD build/pic32mk_mcm_curiosity_pro/production/_ext/423055883/Coordinate_transform.o
LOAD build/pic32mk_mcm_curiosity_pro/production/_ext/423055883/FOC_Control.o
LOAD build/pic32mk_mcm_curiosity_pro/production/_ext/423055883/Motor.o
LOAD build/pic32mk_mcm_curiosity_pro/production/_ext/423055883/PI_Cale.o
LOAD build/pic32mk_mcm_curiosity_pro/production/_ext/423055883/SVPWM.o
LOAD build/pic32mk_mcm_curiosity_pro/production/_ext/1913420649/Speed_Enconder_HALLCAL.o
LOAD build/pic32mk_mcm_curiosity_pro/production/_ext/1224054987/plib_adchs.o
LOAD build/pic32mk_mcm_curiosity_pro/production/_ext/1068833501/plib_cdac2.o
LOAD build/pic32mk_mcm_curiosity_pro/production/_ext/1068833501/plib_cdac3.o
LOAD build/pic32mk_mcm_curiosity_pro/production/_ext/865762238/plib_clk.o
LOAD build/pic32mk_mcm_curiosity_pro/production/_ext/1978316258/plib_eeprom.o
LOAD build/pic32mk_mcm_curiosity_pro/production/_ext/1068756373/plib_evic.o
LOAD build/pic32mk_mcm_curiosity_pro/production/_ext/1068702545/plib_gpio.o
LOAD build/pic32mk_mcm_curiosity_pro/production/_ext/1540640169/plib_i2c1_master.o
LOAD build/pic32mk_mcm_curiosity_pro/production/_ext/1068655703/plib_icap4.o
LOAD build/pic32mk_mcm_curiosity_pro/production/_ext/1068655703/plib_icap5.o
LOAD build/pic32mk_mcm_curiosity_pro/production/_ext/1068655703/plib_icap3.o
LOAD build/pic32mk_mcm_curiosity_pro/production/_ext/1235120400/plib_mcpwm.o
LOAD build/pic32mk_mcm_curiosity_pro/production/_ext/1068476585/plib_ocmp2.o
LOAD build/pic32mk_mcm_curiosity_pro/production/_ext/1068476585/plib_ocmp3.o
LOAD build/pic32mk_mcm_curiosity_pro/production/_ext/1068476585/plib_ocmp4.o
LOAD build/pic32mk_mcm_curiosity_pro/production/_ext/865749003/plib_qei1.o
LOAD build/pic32mk_mcm_curiosity_pro/production/_ext/865745863/plib_tmr2.o
LOAD build/pic32mk_mcm_curiosity_pro/production/_ext/865745863/plib_tmr3.o
LOAD build/pic32mk_mcm_curiosity_pro/production/_ext/1068299602/plib_uart6.o
LOAD build/pic32mk_mcm_curiosity_pro/production/_ext/227981847/plib_wdt.o
LOAD build/pic32mk_mcm_curiosity_pro/production/_ext/1163999990/xc32_monitor.o
LOAD build/pic32mk_mcm_curiosity_pro/production/_ext/1433418692/initialization.o
LOAD build/pic32mk_mcm_curiosity_pro/production/_ext/1433418692/interrupts.o
LOAD build/pic32mk_mcm_curiosity_pro/production/_ext/1433418692/exceptions.o
LOAD build/pic32mk_mcm_curiosity_pro/production/_ext/1360937237/newfile.o
LOAD build/pic32mk_mcm_curiosity_pro/production/_ext/813588705/vofa.o
LOAD build/pic32mk_mcm_curiosity_pro/production/_ext/1360937237/main.o
                0x0000000000000001                __MPLAB_BUILD = 0x1
                0x0000000000000400                PROVIDE (_min_stack_size = 0x400)
START GROUP
LOAD vector_offset_init.o
END GROUP
                0x0000000000000001                PROVIDE (_vector_spacing = 0x1)
                0x000000009d000000                PROVIDE (_ebase_address = 0x9d000000)
                0x00000000bfc00000                _RESET_ADDR = 0xbfc00000
                0x00000000bfc00380                _BEV_EXCPT_ADDR = 0xbfc00380
                0x00000000bfc00480                _DBG_EXCPT_ADDR = 0xbfc00480
                0x000000009d000000                _SIMPLE_TLB_REFILL_EXCPT_ADDR = (_ebase_address + 0x0)
                0x000000009d000180                _GEN_EXCPT_ADDR = (_ebase_address + 0x180)

.config_BFC03F40
 *(.config_BFC03F40)

.config_BFC03F44
 *(.config_BFC03F44)

.config_BFC03F48
 *(.config_BFC03F48)

.config_BFC03F4C
 *(.config_BFC03F4C)

.config_BFC03F5C
 *(.config_BFC03F5C)

.config_BFC03F6C
 *(.config_BFC03F6C)

.config_BFC03F70
 *(.config_BFC03F70)

.config_BFC03FC0
                0x00000000bfc03fc0        0x4
 *(.config_BFC03FC0)
 .config_BFC03FC0
                0x00000000bfc03fc0        0x4 build/pic32mk_mcm_curiosity_pro/production/_ext/1433418692/initialization.o
                0x00000000bfc03fc0                __config_BFC03FC0

.config_BFC03FC4
                0x00000000bfc03fc4        0x4
 *(.config_BFC03FC4)
 .config_BFC03FC4
                0x00000000bfc03fc4        0x4 build/pic32mk_mcm_curiosity_pro/production/_ext/1433418692/initialization.o
                0x00000000bfc03fc4                __config_BFC03FC4

.config_BFC03FC8
                0x00000000bfc03fc8        0x4
 *(.config_BFC03FC8)
 .config_BFC03FC8
                0x00000000bfc03fc8        0x4 build/pic32mk_mcm_curiosity_pro/production/_ext/1433418692/initialization.o
                0x00000000bfc03fc8                __config_BFC03FC8

.config_BFC03FCC
                0x00000000bfc03fcc        0x4
 *(.config_BFC03FCC)
 .config_BFC03FCC
                0x00000000bfc03fcc        0x4 build/pic32mk_mcm_curiosity_pro/production/_ext/1433418692/initialization.o
                0x00000000bfc03fcc                __config_BFC03FCC

.config_BFC03FDC
 *(.config_BFC03FDC)

.config_BFC03FEC
 *(.config_BFC03FEC)

.config_BFC03FF0
                0x00000000bfc03ff0        0x4
 *(.config_BFC03FF0)
 .config_BFC03FF0
                0x00000000bfc03ff0        0x4 build/pic32mk_mcm_curiosity_pro/production/_ext/1433418692/initialization.o
                0x00000000bfc03ff0                __config_BFC03FF0

.config_BFC23F40
 *(.config_BFC23F40)

.config_BFC23F44
 *(.config_BFC23F44)

.config_BFC23F48
 *(.config_BFC23F48)

.config_BFC23F4C
 *(.config_BFC23F4C)

.config_BFC23F5C
 *(.config_BFC23F5C)

.config_BFC23F6C
 *(.config_BFC23F6C)

.config_BFC23F70
 *(.config_BFC23F70)

.config_BFC23FC0
 *(.config_BFC23FC0)

.config_BFC23FC4
 *(.config_BFC23FC4)

.config_BFC23FC8
 *(.config_BFC23FC8)

.config_BFC23FCC
 *(.config_BFC23FCC)

.config_BFC23FDC
 *(.config_BFC23FDC)

.config_BFC23FEC
 *(.config_BFC23FEC)

.config_BFC23FF0
 *(.config_BFC23FF0)

.config_BFC43F40
 *(.config_BFC43F40)

.config_BFC43F44
 *(.config_BFC43F44)

.config_BFC43F48
 *(.config_BFC43F48)

.config_BFC43F4C
 *(.config_BFC43F4C)

.config_BFC43F5C
 *(.config_BFC43F5C)

.config_BFC43F6C
 *(.config_BFC43F6C)

.config_BFC43F70
 *(.config_BFC43F70)

.config_BFC43FC0
 *(.config_BFC43FC0)

.config_BFC43FC4
 *(.config_BFC43FC4)

.config_BFC43FC8
 *(.config_BFC43FC8)

.config_BFC43FCC
 *(.config_BFC43FCC)

.config_BFC43FDC
 *(.config_BFC43FDC)

.config_BFC43FEC
 *(.config_BFC43FEC)

.config_BFC43FF0
 *(.config_BFC43FF0)

.config_BFC45000
 *(.config_BFC45000)

.config_BFC45004
 *(.config_BFC45004)

.config_BFC45008
 *(.config_BFC45008)

.config_BFC4500C
 *(.config_BFC4500C)

.config_BFC45010
 *(.config_BFC45010)

.config_BFC45014
 *(.config_BFC45014)

.config_BFC45018
 *(.config_BFC45018)

.config_BFC45020
 *(.config_BFC45020)

.config_BFC45024
 *(.config_BFC45024)

.config_BFC45028
 *(.config_BFC45028)

.config_BFC4502C
 *(.config_BFC4502C)

.config_BFC45030
 *(.config_BFC45030)

.config_BFC45034
 *(.config_BFC45034)

.config_BFC45038
 *(.config_BFC45038)

.config_BFC4503C
 *(.config_BFC4503C)

.config_BFC63F40
 *(.config_BFC63F40)

.config_BFC63F44
 *(.config_BFC63F44)

.config_BFC63F48
 *(.config_BFC63F48)

.config_BFC63F4C
 *(.config_BFC63F4C)

.config_BFC63F5C
 *(.config_BFC63F5C)

.config_BFC63F6C
 *(.config_BFC63F6C)

.config_BFC63F70
 *(.config_BFC63F70)

.config_BFC63FC0
 *(.config_BFC63FC0)

.config_BFC63FC4
 *(.config_BFC63FC4)

.config_BFC63FC8
 *(.config_BFC63FC8)

.config_BFC63FCC
 *(.config_BFC63FCC)

.config_BFC63FDC
 *(.config_BFC63FDC)

.config_BFC63FEC
 *(.config_BFC63FEC)

.config_BFC63FF0
 *(.config_BFC63FF0)

.reset          0x00000000bfc00000      0x1a4
 *(.reset)
 .reset         0x00000000bfc00000       0x18 C:\Users\031379~1.FDI\AppData\Local\Temp\ccqTAD6z.o
                0x00000000bfc00000                _reset
 *(.reset.startup)
 .reset.startup
                0x00000000bfc00018      0x18c C:\Users\031379~1.FDI\AppData\Local\Temp\ccqTAD6z.o
                0x00000000bfc00018                _startup

.bev_excpt      0x00000000bfc00380       0x10
 *(.bev_handler)
 .bev_handler   0x00000000bfc00380       0x10 C:\Users\031379~1.FDI\AppData\Local\Temp\ccqTAD6z.o

.app_excpt      0x000000009d000180       0x10
 *(.gen_handler)
 .gen_handler   0x000000009d000180       0x10 C:\Users\031379~1.FDI\AppData\Local\Temp\ccqTAD6z.o

.vectors        0x000000009d000200       0xa8
                0x000000009d000200                . = ALIGN (0x4)
                0x0000000000000260                __vector_offset_0 = DEFINED (__vector_dispatch_0)?(. - _ebase_address):__vector_offset_default
 *(.vector_0)
                0x000000009d000200                . = ALIGN (0x4)
                0x0000000000000260                __vector_offset_1 = DEFINED (__vector_dispatch_1)?(. - _ebase_address):__vector_offset_default
 *(.vector_1)
                0x000000009d000200                . = ALIGN (0x4)
                0x0000000000000260                __vector_offset_2 = DEFINED (__vector_dispatch_2)?(. - _ebase_address):__vector_offset_default
 *(.vector_2)
                0x000000009d000200                . = ALIGN (0x4)
                0x0000000000000260                __vector_offset_3 = DEFINED (__vector_dispatch_3)?(. - _ebase_address):__vector_offset_default
 *(.vector_3)
                0x000000009d000200                . = ALIGN (0x4)
                0x0000000000000260                __vector_offset_4 = DEFINED (__vector_dispatch_4)?(. - _ebase_address):__vector_offset_default
 *(.vector_4)
                0x000000009d000200                . = ALIGN (0x4)
                0x0000000000000260                __vector_offset_5 = DEFINED (__vector_dispatch_5)?(. - _ebase_address):__vector_offset_default
 *(.vector_5)
                0x000000009d000200                . = ALIGN (0x4)
                0x0000000000000260                __vector_offset_6 = DEFINED (__vector_dispatch_6)?(. - _ebase_address):__vector_offset_default
 *(.vector_6)
                0x000000009d000200                . = ALIGN (0x4)
                0x0000000000000260                __vector_offset_7 = DEFINED (__vector_dispatch_7)?(. - _ebase_address):__vector_offset_default
 *(.vector_7)
                0x000000009d000200                . = ALIGN (0x4)
                0x0000000000000260                __vector_offset_8 = DEFINED (__vector_dispatch_8)?(. - _ebase_address):__vector_offset_default
 *(.vector_8)
                0x000000009d000200                . = ALIGN (0x4)
                0x0000000000000260                __vector_offset_9 = DEFINED (__vector_dispatch_9)?(. - _ebase_address):__vector_offset_default
 *(.vector_9)
                0x000000009d000200                . = ALIGN (0x4)
                0x0000000000000260                __vector_offset_10 = DEFINED (__vector_dispatch_10)?(. - _ebase_address):__vector_offset_default
 *(.vector_10)
                0x000000009d000200                . = ALIGN (0x4)
                0x0000000000000260                __vector_offset_11 = DEFINED (__vector_dispatch_11)?(. - _ebase_address):__vector_offset_default
 *(.vector_11)
                0x000000009d000200                . = ALIGN (0x4)
                0x0000000000000260                __vector_offset_12 = DEFINED (__vector_dispatch_12)?(. - _ebase_address):__vector_offset_default
 *(.vector_12)
                0x000000009d000200                . = ALIGN (0x4)
                0x0000000000000260                __vector_offset_13 = DEFINED (__vector_dispatch_13)?(. - _ebase_address):__vector_offset_default
 *(.vector_13)
                0x000000009d000200                . = ALIGN (0x4)
                0x0000000000000200                __vector_offset_14 = DEFINED (__vector_dispatch_14)?(. - _ebase_address):__vector_offset_default
 *(.vector_14)
 .vector_14     0x000000009d000200        0x8 build/pic32mk_mcm_curiosity_pro/production/_ext/1433418692/interrupts.o
                0x000000009d000200                __vector_dispatch_14
                0x000000009d000208                . = ALIGN (0x4)
                0x0000000000000260                __vector_offset_15 = DEFINED (__vector_dispatch_15)?(. - _ebase_address):__vector_offset_default
 *(.vector_15)
                0x000000009d000208                . = ALIGN (0x4)
                0x0000000000000208                __vector_offset_16 = DEFINED (__vector_dispatch_16)?(. - _ebase_address):__vector_offset_default
 *(.vector_16)
 .vector_16     0x000000009d000208        0x8 build/pic32mk_mcm_curiosity_pro/production/_ext/1433418692/interrupts.o
                0x000000009d000208                __vector_dispatch_16
                0x000000009d000210                . = ALIGN (0x4)
                0x0000000000000260                __vector_offset_17 = DEFINED (__vector_dispatch_17)?(. - _ebase_address):__vector_offset_default
 *(.vector_17)
                0x000000009d000210                . = ALIGN (0x4)
                0x0000000000000260                __vector_offset_18 = DEFINED (__vector_dispatch_18)?(. - _ebase_address):__vector_offset_default
 *(.vector_18)
                0x000000009d000210                . = ALIGN (0x4)
                0x0000000000000260                __vector_offset_19 = DEFINED (__vector_dispatch_19)?(. - _ebase_address):__vector_offset_default
 *(.vector_19)
                0x000000009d000210                . = ALIGN (0x4)
                0x0000000000000260                __vector_offset_20 = DEFINED (__vector_dispatch_20)?(. - _ebase_address):__vector_offset_default
 *(.vector_20)
                0x000000009d000210                . = ALIGN (0x4)
                0x0000000000000210                __vector_offset_21 = DEFINED (__vector_dispatch_21)?(. - _ebase_address):__vector_offset_default
 *(.vector_21)
 .vector_21     0x000000009d000210        0x8 build/pic32mk_mcm_curiosity_pro/production/_ext/1433418692/interrupts.o
                0x000000009d000210                __vector_dispatch_21
                0x000000009d000218                . = ALIGN (0x4)
                0x0000000000000260                __vector_offset_22 = DEFINED (__vector_dispatch_22)?(. - _ebase_address):__vector_offset_default
 *(.vector_22)
                0x000000009d000218                . = ALIGN (0x4)
                0x0000000000000260                __vector_offset_23 = DEFINED (__vector_dispatch_23)?(. - _ebase_address):__vector_offset_default
 *(.vector_23)
                0x000000009d000218                . = ALIGN (0x4)
                0x0000000000000260                __vector_offset_24 = DEFINED (__vector_dispatch_24)?(. - _ebase_address):__vector_offset_default
 *(.vector_24)
                0x000000009d000218                . = ALIGN (0x4)
                0x0000000000000260                __vector_offset_25 = DEFINED (__vector_dispatch_25)?(. - _ebase_address):__vector_offset_default
 *(.vector_25)
                0x000000009d000218                . = ALIGN (0x4)
                0x0000000000000218                __vector_offset_26 = DEFINED (__vector_dispatch_26)?(. - _ebase_address):__vector_offset_default
 *(.vector_26)
 .vector_26     0x000000009d000218        0x8 build/pic32mk_mcm_curiosity_pro/production/_ext/1433418692/interrupts.o
                0x000000009d000218                __vector_dispatch_26
                0x000000009d000220                . = ALIGN (0x4)
                0x0000000000000260                __vector_offset_27 = DEFINED (__vector_dispatch_27)?(. - _ebase_address):__vector_offset_default
 *(.vector_27)
                0x000000009d000220                . = ALIGN (0x4)
                0x0000000000000260                __vector_offset_28 = DEFINED (__vector_dispatch_28)?(. - _ebase_address):__vector_offset_default
 *(.vector_28)
                0x000000009d000220                . = ALIGN (0x4)
                0x0000000000000260                __vector_offset_29 = DEFINED (__vector_dispatch_29)?(. - _ebase_address):__vector_offset_default
 *(.vector_29)
                0x000000009d000220                . = ALIGN (0x4)
                0x0000000000000260                __vector_offset_30 = DEFINED (__vector_dispatch_30)?(. - _ebase_address):__vector_offset_default
 *(.vector_30)
                0x000000009d000220                . = ALIGN (0x4)
                0x0000000000000260                __vector_offset_31 = DEFINED (__vector_dispatch_31)?(. - _ebase_address):__vector_offset_default
 *(.vector_31)
                0x000000009d000220                . = ALIGN (0x4)
                0x0000000000000260                __vector_offset_32 = DEFINED (__vector_dispatch_32)?(. - _ebase_address):__vector_offset_default
 *(.vector_32)
                0x000000009d000220                . = ALIGN (0x4)
                0x0000000000000260                __vector_offset_33 = DEFINED (__vector_dispatch_33)?(. - _ebase_address):__vector_offset_default
 *(.vector_33)
                0x000000009d000220                . = ALIGN (0x4)
                0x0000000000000260                __vector_offset_34 = DEFINED (__vector_dispatch_34)?(. - _ebase_address):__vector_offset_default
 *(.vector_34)
                0x000000009d000220                . = ALIGN (0x4)
                0x0000000000000260                __vector_offset_35 = DEFINED (__vector_dispatch_35)?(. - _ebase_address):__vector_offset_default
 *(.vector_35)
                0x000000009d000220                . = ALIGN (0x4)
                0x0000000000000260                __vector_offset_36 = DEFINED (__vector_dispatch_36)?(. - _ebase_address):__vector_offset_default
 *(.vector_36)
                0x000000009d000220                . = ALIGN (0x4)
                0x0000000000000260                __vector_offset_37 = DEFINED (__vector_dispatch_37)?(. - _ebase_address):__vector_offset_default
 *(.vector_37)
                0x000000009d000220                . = ALIGN (0x4)
                0x0000000000000260                __vector_offset_38 = DEFINED (__vector_dispatch_38)?(. - _ebase_address):__vector_offset_default
 *(.vector_38)
                0x000000009d000220                . = ALIGN (0x4)
                0x0000000000000260                __vector_offset_39 = DEFINED (__vector_dispatch_39)?(. - _ebase_address):__vector_offset_default
 *(.vector_39)
                0x000000009d000220                . = ALIGN (0x4)
                0x0000000000000260                __vector_offset_40 = DEFINED (__vector_dispatch_40)?(. - _ebase_address):__vector_offset_default
 *(.vector_40)
                0x000000009d000220                . = ALIGN (0x4)
                0x0000000000000220                __vector_offset_41 = DEFINED (__vector_dispatch_41)?(. - _ebase_address):__vector_offset_default
 *(.vector_41)
 .vector_41     0x000000009d000220        0x8 build/pic32mk_mcm_curiosity_pro/production/_ext/1433418692/interrupts.o
                0x000000009d000220                __vector_dispatch_41
                0x000000009d000228                . = ALIGN (0x4)
                0x0000000000000260                __vector_offset_42 = DEFINED (__vector_dispatch_42)?(. - _ebase_address):__vector_offset_default
 *(.vector_42)
                0x000000009d000228                . = ALIGN (0x4)
                0x0000000000000228                __vector_offset_43 = DEFINED (__vector_dispatch_43)?(. - _ebase_address):__vector_offset_default
 *(.vector_43)
 .vector_43     0x000000009d000228        0x8 build/pic32mk_mcm_curiosity_pro/production/_ext/1433418692/interrupts.o
                0x000000009d000228                __vector_dispatch_43
                0x000000009d000230                . = ALIGN (0x4)
                0x0000000000000260                __vector_offset_44 = DEFINED (__vector_dispatch_44)?(. - _ebase_address):__vector_offset_default
 *(.vector_44)
                0x000000009d000230                . = ALIGN (0x4)
                0x0000000000000260                __vector_offset_45 = DEFINED (__vector_dispatch_45)?(. - _ebase_address):__vector_offset_default
 *(.vector_45)
                0x000000009d000230                . = ALIGN (0x4)
                0x0000000000000260                __vector_offset_46 = DEFINED (__vector_dispatch_46)?(. - _ebase_address):__vector_offset_default
 *(.vector_46)
                0x000000009d000230                . = ALIGN (0x4)
                0x0000000000000260                __vector_offset_47 = DEFINED (__vector_dispatch_47)?(. - _ebase_address):__vector_offset_default
 *(.vector_47)
                0x000000009d000230                . = ALIGN (0x4)
                0x0000000000000260                __vector_offset_48 = DEFINED (__vector_dispatch_48)?(. - _ebase_address):__vector_offset_default
 *(.vector_48)
                0x000000009d000230                . = ALIGN (0x4)
                0x0000000000000260                __vector_offset_49 = DEFINED (__vector_dispatch_49)?(. - _ebase_address):__vector_offset_default
 *(.vector_49)
                0x000000009d000230                . = ALIGN (0x4)
                0x0000000000000260                __vector_offset_50 = DEFINED (__vector_dispatch_50)?(. - _ebase_address):__vector_offset_default
 *(.vector_50)
                0x000000009d000230                . = ALIGN (0x4)
                0x0000000000000260                __vector_offset_51 = DEFINED (__vector_dispatch_51)?(. - _ebase_address):__vector_offset_default
 *(.vector_51)
                0x000000009d000230                . = ALIGN (0x4)
                0x0000000000000260                __vector_offset_52 = DEFINED (__vector_dispatch_52)?(. - _ebase_address):__vector_offset_default
 *(.vector_52)
                0x000000009d000230                . = ALIGN (0x4)
                0x0000000000000260                __vector_offset_53 = DEFINED (__vector_dispatch_53)?(. - _ebase_address):__vector_offset_default
 *(.vector_53)
                0x000000009d000230                . = ALIGN (0x4)
                0x0000000000000260                __vector_offset_54 = DEFINED (__vector_dispatch_54)?(. - _ebase_address):__vector_offset_default
 *(.vector_54)
                0x000000009d000230                . = ALIGN (0x4)
                0x0000000000000260                __vector_offset_55 = DEFINED (__vector_dispatch_55)?(. - _ebase_address):__vector_offset_default
 *(.vector_55)
                0x000000009d000230                . = ALIGN (0x4)
                0x0000000000000260                __vector_offset_56 = DEFINED (__vector_dispatch_56)?(. - _ebase_address):__vector_offset_default
 *(.vector_56)
                0x000000009d000230                . = ALIGN (0x4)
                0x0000000000000260                __vector_offset_57 = DEFINED (__vector_dispatch_57)?(. - _ebase_address):__vector_offset_default
 *(.vector_57)
                0x000000009d000230                . = ALIGN (0x4)
                0x0000000000000260                __vector_offset_58 = DEFINED (__vector_dispatch_58)?(. - _ebase_address):__vector_offset_default
 *(.vector_58)
                0x000000009d000230                . = ALIGN (0x4)
                0x0000000000000260                __vector_offset_59 = DEFINED (__vector_dispatch_59)?(. - _ebase_address):__vector_offset_default
 *(.vector_59)
                0x000000009d000230                . = ALIGN (0x4)
                0x0000000000000260                __vector_offset_60 = DEFINED (__vector_dispatch_60)?(. - _ebase_address):__vector_offset_default
 *(.vector_60)
                0x000000009d000230                . = ALIGN (0x4)
                0x0000000000000260                __vector_offset_61 = DEFINED (__vector_dispatch_61)?(. - _ebase_address):__vector_offset_default
 *(.vector_61)
                0x000000009d000230                . = ALIGN (0x4)
                0x0000000000000260                __vector_offset_62 = DEFINED (__vector_dispatch_62)?(. - _ebase_address):__vector_offset_default
 *(.vector_62)
                0x000000009d000230                . = ALIGN (0x4)
                0x0000000000000260                __vector_offset_63 = DEFINED (__vector_dispatch_63)?(. - _ebase_address):__vector_offset_default
 *(.vector_63)
                0x000000009d000230                . = ALIGN (0x4)
                0x0000000000000260                __vector_offset_64 = DEFINED (__vector_dispatch_64)?(. - _ebase_address):__vector_offset_default
 *(.vector_64)
                0x000000009d000230                . = ALIGN (0x4)
                0x0000000000000260                __vector_offset_65 = DEFINED (__vector_dispatch_65)?(. - _ebase_address):__vector_offset_default
 *(.vector_65)
                0x000000009d000230                . = ALIGN (0x4)
                0x0000000000000260                __vector_offset_66 = DEFINED (__vector_dispatch_66)?(. - _ebase_address):__vector_offset_default
 *(.vector_66)
                0x000000009d000230                . = ALIGN (0x4)
                0x0000000000000260                __vector_offset_67 = DEFINED (__vector_dispatch_67)?(. - _ebase_address):__vector_offset_default
 *(.vector_67)
                0x000000009d000230                . = ALIGN (0x4)
                0x0000000000000260                __vector_offset_68 = DEFINED (__vector_dispatch_68)?(. - _ebase_address):__vector_offset_default
 *(.vector_68)
                0x000000009d000230                . = ALIGN (0x4)
                0x0000000000000260                __vector_offset_69 = DEFINED (__vector_dispatch_69)?(. - _ebase_address):__vector_offset_default
 *(.vector_69)
                0x000000009d000230                . = ALIGN (0x4)
                0x0000000000000260                __vector_offset_70 = DEFINED (__vector_dispatch_70)?(. - _ebase_address):__vector_offset_default
 *(.vector_70)
                0x000000009d000230                . = ALIGN (0x4)
                0x0000000000000260                __vector_offset_71 = DEFINED (__vector_dispatch_71)?(. - _ebase_address):__vector_offset_default
 *(.vector_71)
                0x000000009d000230                . = ALIGN (0x4)
                0x0000000000000260                __vector_offset_72 = DEFINED (__vector_dispatch_72)?(. - _ebase_address):__vector_offset_default
 *(.vector_72)
                0x000000009d000230                . = ALIGN (0x4)
                0x0000000000000260                __vector_offset_73 = DEFINED (__vector_dispatch_73)?(. - _ebase_address):__vector_offset_default
 *(.vector_73)
                0x000000009d000230                . = ALIGN (0x4)
                0x0000000000000260                __vector_offset_74 = DEFINED (__vector_dispatch_74)?(. - _ebase_address):__vector_offset_default
 *(.vector_74)
                0x000000009d000230                . = ALIGN (0x4)
                0x0000000000000260                __vector_offset_75 = DEFINED (__vector_dispatch_75)?(. - _ebase_address):__vector_offset_default
 *(.vector_75)
                0x000000009d000230                . = ALIGN (0x4)
                0x0000000000000260                __vector_offset_76 = DEFINED (__vector_dispatch_76)?(. - _ebase_address):__vector_offset_default
 *(.vector_76)
                0x000000009d000230                . = ALIGN (0x4)
                0x0000000000000260                __vector_offset_77 = DEFINED (__vector_dispatch_77)?(. - _ebase_address):__vector_offset_default
 *(.vector_77)
                0x000000009d000230                . = ALIGN (0x4)
                0x0000000000000260                __vector_offset_78 = DEFINED (__vector_dispatch_78)?(. - _ebase_address):__vector_offset_default
 *(.vector_78)
                0x000000009d000230                . = ALIGN (0x4)
                0x0000000000000260                __vector_offset_79 = DEFINED (__vector_dispatch_79)?(. - _ebase_address):__vector_offset_default
 *(.vector_79)
                0x000000009d000230                . = ALIGN (0x4)
                0x0000000000000260                __vector_offset_80 = DEFINED (__vector_dispatch_80)?(. - _ebase_address):__vector_offset_default
 *(.vector_80)
                0x000000009d000230                . = ALIGN (0x4)
                0x0000000000000260                __vector_offset_81 = DEFINED (__vector_dispatch_81)?(. - _ebase_address):__vector_offset_default
 *(.vector_81)
                0x000000009d000230                . = ALIGN (0x4)
                0x0000000000000260                __vector_offset_82 = DEFINED (__vector_dispatch_82)?(. - _ebase_address):__vector_offset_default
 *(.vector_82)
                0x000000009d000230                . = ALIGN (0x4)
                0x0000000000000260                __vector_offset_83 = DEFINED (__vector_dispatch_83)?(. - _ebase_address):__vector_offset_default
 *(.vector_83)
                0x000000009d000230                . = ALIGN (0x4)
                0x0000000000000260                __vector_offset_84 = DEFINED (__vector_dispatch_84)?(. - _ebase_address):__vector_offset_default
 *(.vector_84)
                0x000000009d000230                . = ALIGN (0x4)
                0x0000000000000260                __vector_offset_85 = DEFINED (__vector_dispatch_85)?(. - _ebase_address):__vector_offset_default
 *(.vector_85)
                0x000000009d000230                . = ALIGN (0x4)
                0x0000000000000260                __vector_offset_86 = DEFINED (__vector_dispatch_86)?(. - _ebase_address):__vector_offset_default
 *(.vector_86)
                0x000000009d000230                . = ALIGN (0x4)
                0x0000000000000260                __vector_offset_87 = DEFINED (__vector_dispatch_87)?(. - _ebase_address):__vector_offset_default
 *(.vector_87)
                0x000000009d000230                . = ALIGN (0x4)
                0x0000000000000260                __vector_offset_88 = DEFINED (__vector_dispatch_88)?(. - _ebase_address):__vector_offset_default
 *(.vector_88)
                0x000000009d000230                . = ALIGN (0x4)
                0x0000000000000260                __vector_offset_89 = DEFINED (__vector_dispatch_89)?(. - _ebase_address):__vector_offset_default
 *(.vector_89)
                0x000000009d000230                . = ALIGN (0x4)
                0x0000000000000260                __vector_offset_90 = DEFINED (__vector_dispatch_90)?(. - _ebase_address):__vector_offset_default
 *(.vector_90)
                0x000000009d000230                . = ALIGN (0x4)
                0x0000000000000260                __vector_offset_91 = DEFINED (__vector_dispatch_91)?(. - _ebase_address):__vector_offset_default
 *(.vector_91)
                0x000000009d000230                . = ALIGN (0x4)
                0x0000000000000260                __vector_offset_92 = DEFINED (__vector_dispatch_92)?(. - _ebase_address):__vector_offset_default
 *(.vector_92)
                0x000000009d000230                . = ALIGN (0x4)
                0x0000000000000260                __vector_offset_93 = DEFINED (__vector_dispatch_93)?(. - _ebase_address):__vector_offset_default
 *(.vector_93)
                0x000000009d000230                . = ALIGN (0x4)
                0x0000000000000260                __vector_offset_94 = DEFINED (__vector_dispatch_94)?(. - _ebase_address):__vector_offset_default
 *(.vector_94)
                0x000000009d000230                . = ALIGN (0x4)
                0x0000000000000260                __vector_offset_95 = DEFINED (__vector_dispatch_95)?(. - _ebase_address):__vector_offset_default
 *(.vector_95)
                0x000000009d000230                . = ALIGN (0x4)
                0x0000000000000260                __vector_offset_96 = DEFINED (__vector_dispatch_96)?(. - _ebase_address):__vector_offset_default
 *(.vector_96)
                0x000000009d000230                . = ALIGN (0x4)
                0x0000000000000260                __vector_offset_97 = DEFINED (__vector_dispatch_97)?(. - _ebase_address):__vector_offset_default
 *(.vector_97)
                0x000000009d000230                . = ALIGN (0x4)
                0x0000000000000260                __vector_offset_98 = DEFINED (__vector_dispatch_98)?(. - _ebase_address):__vector_offset_default
 *(.vector_98)
                0x000000009d000230                . = ALIGN (0x4)
                0x0000000000000260                __vector_offset_99 = DEFINED (__vector_dispatch_99)?(. - _ebase_address):__vector_offset_default
 *(.vector_99)
                0x000000009d000230                . = ALIGN (0x4)
                0x0000000000000260                __vector_offset_100 = DEFINED (__vector_dispatch_100)?(. - _ebase_address):__vector_offset_default
 *(.vector_100)
                0x000000009d000230                . = ALIGN (0x4)
                0x0000000000000260                __vector_offset_101 = DEFINED (__vector_dispatch_101)?(. - _ebase_address):__vector_offset_default
 *(.vector_101)
                0x000000009d000230                . = ALIGN (0x4)
                0x0000000000000260                __vector_offset_102 = DEFINED (__vector_dispatch_102)?(. - _ebase_address):__vector_offset_default
 *(.vector_102)
                0x000000009d000230                . = ALIGN (0x4)
                0x0000000000000260                __vector_offset_103 = DEFINED (__vector_dispatch_103)?(. - _ebase_address):__vector_offset_default
 *(.vector_103)
                0x000000009d000230                . = ALIGN (0x4)
                0x0000000000000260                __vector_offset_104 = DEFINED (__vector_dispatch_104)?(. - _ebase_address):__vector_offset_default
 *(.vector_104)
                0x000000009d000230                . = ALIGN (0x4)
                0x0000000000000260                __vector_offset_105 = DEFINED (__vector_dispatch_105)?(. - _ebase_address):__vector_offset_default
 *(.vector_105)
                0x000000009d000230                . = ALIGN (0x4)
                0x0000000000000230                __vector_offset_106 = DEFINED (__vector_dispatch_106)?(. - _ebase_address):__vector_offset_default
 *(.vector_106)
 .vector_106    0x000000009d000230        0x8 build/pic32mk_mcm_curiosity_pro/production/_ext/1433418692/interrupts.o
                0x000000009d000230                __vector_dispatch_106
                0x000000009d000238                . = ALIGN (0x4)
                0x0000000000000238                __vector_offset_107 = DEFINED (__vector_dispatch_107)?(. - _ebase_address):__vector_offset_default
 *(.vector_107)
 .vector_107    0x000000009d000238        0x8 build/pic32mk_mcm_curiosity_pro/production/_ext/1433418692/interrupts.o
                0x000000009d000238                __vector_dispatch_107
                0x000000009d000240                . = ALIGN (0x4)
                0x0000000000000260                __vector_offset_108 = DEFINED (__vector_dispatch_108)?(. - _ebase_address):__vector_offset_default
 *(.vector_108)
                0x000000009d000240                . = ALIGN (0x4)
                0x0000000000000260                __vector_offset_109 = DEFINED (__vector_dispatch_109)?(. - _ebase_address):__vector_offset_default
 *(.vector_109)
                0x000000009d000240                . = ALIGN (0x4)
                0x0000000000000260                __vector_offset_110 = DEFINED (__vector_dispatch_110)?(. - _ebase_address):__vector_offset_default
 *(.vector_110)
                0x000000009d000240                . = ALIGN (0x4)
                0x0000000000000260                __vector_offset_111 = DEFINED (__vector_dispatch_111)?(. - _ebase_address):__vector_offset_default
 *(.vector_111)
                0x000000009d000240                . = ALIGN (0x4)
                0x0000000000000260                __vector_offset_112 = DEFINED (__vector_dispatch_112)?(. - _ebase_address):__vector_offset_default
 *(.vector_112)
                0x000000009d000240                . = ALIGN (0x4)
                0x0000000000000260                __vector_offset_113 = DEFINED (__vector_dispatch_113)?(. - _ebase_address):__vector_offset_default
 *(.vector_113)
                0x000000009d000240                . = ALIGN (0x4)
                0x0000000000000260                __vector_offset_114 = DEFINED (__vector_dispatch_114)?(. - _ebase_address):__vector_offset_default
 *(.vector_114)
                0x000000009d000240                . = ALIGN (0x4)
                0x0000000000000260                __vector_offset_115 = DEFINED (__vector_dispatch_115)?(. - _ebase_address):__vector_offset_default
 *(.vector_115)
                0x000000009d000240                . = ALIGN (0x4)
                0x0000000000000260                __vector_offset_116 = DEFINED (__vector_dispatch_116)?(. - _ebase_address):__vector_offset_default
 *(.vector_116)
                0x000000009d000240                . = ALIGN (0x4)
                0x0000000000000260                __vector_offset_117 = DEFINED (__vector_dispatch_117)?(. - _ebase_address):__vector_offset_default
 *(.vector_117)
                0x000000009d000240                . = ALIGN (0x4)
                0x0000000000000260                __vector_offset_118 = DEFINED (__vector_dispatch_118)?(. - _ebase_address):__vector_offset_default
 *(.vector_118)
                0x000000009d000240                . = ALIGN (0x4)
                0x0000000000000260                __vector_offset_119 = DEFINED (__vector_dispatch_119)?(. - _ebase_address):__vector_offset_default
 *(.vector_119)
                0x000000009d000240                . = ALIGN (0x4)
                0x0000000000000260                __vector_offset_120 = DEFINED (__vector_dispatch_120)?(. - _ebase_address):__vector_offset_default
 *(.vector_120)
                0x000000009d000240                . = ALIGN (0x4)
                0x0000000000000260                __vector_offset_121 = DEFINED (__vector_dispatch_121)?(. - _ebase_address):__vector_offset_default
 *(.vector_121)
                0x000000009d000240                . = ALIGN (0x4)
                0x0000000000000260                __vector_offset_122 = DEFINED (__vector_dispatch_122)?(. - _ebase_address):__vector_offset_default
 *(.vector_122)
                0x000000009d000240                . = ALIGN (0x4)
                0x0000000000000260                __vector_offset_123 = DEFINED (__vector_dispatch_123)?(. - _ebase_address):__vector_offset_default
 *(.vector_123)
                0x000000009d000240                . = ALIGN (0x4)
                0x0000000000000260                __vector_offset_124 = DEFINED (__vector_dispatch_124)?(. - _ebase_address):__vector_offset_default
 *(.vector_124)
                0x000000009d000240                . = ALIGN (0x4)
                0x0000000000000260                __vector_offset_125 = DEFINED (__vector_dispatch_125)?(. - _ebase_address):__vector_offset_default
 *(.vector_125)
                0x000000009d000240                . = ALIGN (0x4)
                0x0000000000000260                __vector_offset_126 = DEFINED (__vector_dispatch_126)?(. - _ebase_address):__vector_offset_default
 *(.vector_126)
                0x000000009d000240                . = ALIGN (0x4)
                0x0000000000000260                __vector_offset_127 = DEFINED (__vector_dispatch_127)?(. - _ebase_address):__vector_offset_default
 *(.vector_127)
                0x000000009d000240                . = ALIGN (0x4)
                0x0000000000000260                __vector_offset_128 = DEFINED (__vector_dispatch_128)?(. - _ebase_address):__vector_offset_default
 *(.vector_128)
                0x000000009d000240                . = ALIGN (0x4)
                0x0000000000000260                __vector_offset_129 = DEFINED (__vector_dispatch_129)?(. - _ebase_address):__vector_offset_default
 *(.vector_129)
                0x000000009d000240                . = ALIGN (0x4)
                0x0000000000000260                __vector_offset_130 = DEFINED (__vector_dispatch_130)?(. - _ebase_address):__vector_offset_default
 *(.vector_130)
                0x000000009d000240                . = ALIGN (0x4)
                0x0000000000000260                __vector_offset_131 = DEFINED (__vector_dispatch_131)?(. - _ebase_address):__vector_offset_default
 *(.vector_131)
                0x000000009d000240                . = ALIGN (0x4)
                0x0000000000000260                __vector_offset_132 = DEFINED (__vector_dispatch_132)?(. - _ebase_address):__vector_offset_default
 *(.vector_132)
                0x000000009d000240                . = ALIGN (0x4)
                0x0000000000000260                __vector_offset_133 = DEFINED (__vector_dispatch_133)?(. - _ebase_address):__vector_offset_default
 *(.vector_133)
                0x000000009d000240                . = ALIGN (0x4)
                0x0000000000000260                __vector_offset_134 = DEFINED (__vector_dispatch_134)?(. - _ebase_address):__vector_offset_default
 *(.vector_134)
                0x000000009d000240                . = ALIGN (0x4)
                0x0000000000000260                __vector_offset_135 = DEFINED (__vector_dispatch_135)?(. - _ebase_address):__vector_offset_default
 *(.vector_135)
                0x000000009d000240                . = ALIGN (0x4)
                0x0000000000000260                __vector_offset_136 = DEFINED (__vector_dispatch_136)?(. - _ebase_address):__vector_offset_default
 *(.vector_136)
                0x000000009d000240                . = ALIGN (0x4)
                0x0000000000000260                __vector_offset_137 = DEFINED (__vector_dispatch_137)?(. - _ebase_address):__vector_offset_default
 *(.vector_137)
                0x000000009d000240                . = ALIGN (0x4)
                0x0000000000000260                __vector_offset_138 = DEFINED (__vector_dispatch_138)?(. - _ebase_address):__vector_offset_default
 *(.vector_138)
                0x000000009d000240                . = ALIGN (0x4)
                0x0000000000000260                __vector_offset_139 = DEFINED (__vector_dispatch_139)?(. - _ebase_address):__vector_offset_default
 *(.vector_139)
                0x000000009d000240                . = ALIGN (0x4)
                0x0000000000000260                __vector_offset_140 = DEFINED (__vector_dispatch_140)?(. - _ebase_address):__vector_offset_default
 *(.vector_140)
                0x000000009d000240                . = ALIGN (0x4)
                0x0000000000000260                __vector_offset_141 = DEFINED (__vector_dispatch_141)?(. - _ebase_address):__vector_offset_default
 *(.vector_141)
                0x000000009d000240                . = ALIGN (0x4)
                0x0000000000000260                __vector_offset_142 = DEFINED (__vector_dispatch_142)?(. - _ebase_address):__vector_offset_default
 *(.vector_142)
                0x000000009d000240                . = ALIGN (0x4)
                0x0000000000000260                __vector_offset_143 = DEFINED (__vector_dispatch_143)?(. - _ebase_address):__vector_offset_default
 *(.vector_143)
                0x000000009d000240                . = ALIGN (0x4)
                0x0000000000000260                __vector_offset_144 = DEFINED (__vector_dispatch_144)?(. - _ebase_address):__vector_offset_default
 *(.vector_144)
                0x000000009d000240                . = ALIGN (0x4)
                0x0000000000000260                __vector_offset_145 = DEFINED (__vector_dispatch_145)?(. - _ebase_address):__vector_offset_default
 *(.vector_145)
                0x000000009d000240                . = ALIGN (0x4)
                0x0000000000000260                __vector_offset_146 = DEFINED (__vector_dispatch_146)?(. - _ebase_address):__vector_offset_default
 *(.vector_146)
                0x000000009d000240                . = ALIGN (0x4)
                0x0000000000000260                __vector_offset_147 = DEFINED (__vector_dispatch_147)?(. - _ebase_address):__vector_offset_default
 *(.vector_147)
                0x000000009d000240                . = ALIGN (0x4)
                0x0000000000000260                __vector_offset_148 = DEFINED (__vector_dispatch_148)?(. - _ebase_address):__vector_offset_default
 *(.vector_148)
                0x000000009d000240                . = ALIGN (0x4)
                0x0000000000000260                __vector_offset_149 = DEFINED (__vector_dispatch_149)?(. - _ebase_address):__vector_offset_default
 *(.vector_149)
                0x000000009d000240                . = ALIGN (0x4)
                0x0000000000000260                __vector_offset_150 = DEFINED (__vector_dispatch_150)?(. - _ebase_address):__vector_offset_default
 *(.vector_150)
                0x000000009d000240                . = ALIGN (0x4)
                0x0000000000000260                __vector_offset_151 = DEFINED (__vector_dispatch_151)?(. - _ebase_address):__vector_offset_default
 *(.vector_151)
                0x000000009d000240                . = ALIGN (0x4)
                0x0000000000000260                __vector_offset_152 = DEFINED (__vector_dispatch_152)?(. - _ebase_address):__vector_offset_default
 *(.vector_152)
                0x000000009d000240                . = ALIGN (0x4)
                0x0000000000000260                __vector_offset_153 = DEFINED (__vector_dispatch_153)?(. - _ebase_address):__vector_offset_default
 *(.vector_153)
                0x000000009d000240                . = ALIGN (0x4)
                0x0000000000000260                __vector_offset_154 = DEFINED (__vector_dispatch_154)?(. - _ebase_address):__vector_offset_default
 *(.vector_154)
                0x000000009d000240                . = ALIGN (0x4)
                0x0000000000000260                __vector_offset_155 = DEFINED (__vector_dispatch_155)?(. - _ebase_address):__vector_offset_default
 *(.vector_155)
                0x000000009d000240                . = ALIGN (0x4)
                0x0000000000000260                __vector_offset_156 = DEFINED (__vector_dispatch_156)?(. - _ebase_address):__vector_offset_default
 *(.vector_156)
                0x000000009d000240                . = ALIGN (0x4)
                0x0000000000000260                __vector_offset_157 = DEFINED (__vector_dispatch_157)?(. - _ebase_address):__vector_offset_default
 *(.vector_157)
                0x000000009d000240                . = ALIGN (0x4)
                0x0000000000000260                __vector_offset_158 = DEFINED (__vector_dispatch_158)?(. - _ebase_address):__vector_offset_default
 *(.vector_158)
                0x000000009d000240                . = ALIGN (0x4)
                0x0000000000000260                __vector_offset_159 = DEFINED (__vector_dispatch_159)?(. - _ebase_address):__vector_offset_default
 *(.vector_159)
                0x000000009d000240                . = ALIGN (0x4)
                0x0000000000000260                __vector_offset_160 = DEFINED (__vector_dispatch_160)?(. - _ebase_address):__vector_offset_default
 *(.vector_160)
                0x000000009d000240                . = ALIGN (0x4)
                0x0000000000000260                __vector_offset_161 = DEFINED (__vector_dispatch_161)?(. - _ebase_address):__vector_offset_default
 *(.vector_161)
                0x000000009d000240                . = ALIGN (0x4)
                0x0000000000000260                __vector_offset_162 = DEFINED (__vector_dispatch_162)?(. - _ebase_address):__vector_offset_default
 *(.vector_162)
                0x000000009d000240                . = ALIGN (0x4)
                0x0000000000000260                __vector_offset_163 = DEFINED (__vector_dispatch_163)?(. - _ebase_address):__vector_offset_default
 *(.vector_163)
                0x000000009d000240                . = ALIGN (0x4)
                0x0000000000000240                __vector_offset_164 = DEFINED (__vector_dispatch_164)?(. - _ebase_address):__vector_offset_default
 *(.vector_164)
 .vector_164    0x000000009d000240        0x8 build/pic32mk_mcm_curiosity_pro/production/_ext/1433418692/interrupts.o
                0x000000009d000240                __vector_dispatch_164
                0x000000009d000248                . = ALIGN (0x4)
                0x0000000000000248                __vector_offset_165 = DEFINED (__vector_dispatch_165)?(. - _ebase_address):__vector_offset_default
 *(.vector_165)
 .vector_165    0x000000009d000248        0x8 build/pic32mk_mcm_curiosity_pro/production/_ext/1433418692/interrupts.o
                0x000000009d000248                __vector_dispatch_165
                0x000000009d000250                . = ALIGN (0x4)
                0x0000000000000250                __vector_offset_166 = DEFINED (__vector_dispatch_166)?(. - _ebase_address):__vector_offset_default
 *(.vector_166)
 .vector_166    0x000000009d000250        0x8 build/pic32mk_mcm_curiosity_pro/production/_ext/1433418692/interrupts.o
                0x000000009d000250                __vector_dispatch_166
                0x000000009d000258                . = ALIGN (0x4)
                0x0000000000000260                __vector_offset_167 = DEFINED (__vector_dispatch_167)?(. - _ebase_address):__vector_offset_default
 *(.vector_167)
                0x000000009d000258                . = ALIGN (0x4)
                0x0000000000000260                __vector_offset_168 = DEFINED (__vector_dispatch_168)?(. - _ebase_address):__vector_offset_default
 *(.vector_168)
                0x000000009d000258                . = ALIGN (0x4)
                0x0000000000000260                __vector_offset_169 = DEFINED (__vector_dispatch_169)?(. - _ebase_address):__vector_offset_default
 *(.vector_169)
                0x000000009d000258                . = ALIGN (0x4)
                0x0000000000000260                __vector_offset_170 = DEFINED (__vector_dispatch_170)?(. - _ebase_address):__vector_offset_default
 *(.vector_170)
                0x000000009d000258                . = ALIGN (0x4)
                0x0000000000000260                __vector_offset_171 = DEFINED (__vector_dispatch_171)?(. - _ebase_address):__vector_offset_default
 *(.vector_171)
                0x000000009d000258                . = ALIGN (0x4)
                0x0000000000000260                __vector_offset_172 = DEFINED (__vector_dispatch_172)?(. - _ebase_address):__vector_offset_default
 *(.vector_172)
                0x000000009d000258                . = ALIGN (0x4)
                0x0000000000000258                __vector_offset_173 = DEFINED (__vector_dispatch_173)?(. - _ebase_address):__vector_offset_default
 *(.vector_173)
 .vector_173    0x000000009d000258        0x8 build/pic32mk_mcm_curiosity_pro/production/_ext/1433418692/interrupts.o
                0x000000009d000258                __vector_dispatch_173
                0x000000009d000260                . = ALIGN (0x4)
                0x0000000000000260                __vector_offset_174 = DEFINED (__vector_dispatch_174)?(. - _ebase_address):__vector_offset_default
 *(.vector_174)
                0x000000009d000260                . = ALIGN (0x4)
                0x0000000000000260                __vector_offset_175 = DEFINED (__vector_dispatch_175)?(. - _ebase_address):__vector_offset_default
 *(.vector_175)
                0x000000009d000260                . = ALIGN (0x4)
                0x0000000000000260                __vector_offset_176 = DEFINED (__vector_dispatch_176)?(. - _ebase_address):__vector_offset_default
 *(.vector_176)
                0x000000009d000260                . = ALIGN (0x4)
                0x0000000000000260                __vector_offset_177 = DEFINED (__vector_dispatch_177)?(. - _ebase_address):__vector_offset_default
 *(.vector_177)
                0x000000009d000260                . = ALIGN (0x4)
                0x0000000000000260                __vector_offset_178 = DEFINED (__vector_dispatch_178)?(. - _ebase_address):__vector_offset_default
 *(.vector_178)
                0x000000009d000260                . = ALIGN (0x4)
                0x0000000000000260                __vector_offset_179 = DEFINED (__vector_dispatch_179)?(. - _ebase_address):__vector_offset_default
 *(.vector_179)
                0x000000009d000260                . = ALIGN (0x4)
                0x0000000000000260                __vector_offset_180 = DEFINED (__vector_dispatch_180)?(. - _ebase_address):__vector_offset_default
 *(.vector_180)
                0x000000009d000260                . = ALIGN (0x4)
                0x0000000000000260                __vector_offset_181 = DEFINED (__vector_dispatch_181)?(. - _ebase_address):__vector_offset_default
 *(.vector_181)
                0x000000009d000260                . = ALIGN (0x4)
                0x0000000000000260                __vector_offset_182 = DEFINED (__vector_dispatch_182)?(. - _ebase_address):__vector_offset_default
 *(.vector_182)
                0x000000009d000260                . = ALIGN (0x4)
                0x0000000000000260                __vector_offset_183 = DEFINED (__vector_dispatch_183)?(. - _ebase_address):__vector_offset_default
 *(.vector_183)
                0x000000009d000260                . = ALIGN (0x4)
                0x0000000000000260                __vector_offset_184 = DEFINED (__vector_dispatch_184)?(. - _ebase_address):__vector_offset_default
 *(.vector_184)
                0x000000009d000260                . = ALIGN (0x4)
                0x0000000000000260                __vector_offset_185 = DEFINED (__vector_dispatch_185)?(. - _ebase_address):__vector_offset_default
 *(.vector_185)
                0x000000009d000260                . = ALIGN (0x4)
                0x0000000000000260                __vector_offset_186 = DEFINED (__vector_dispatch_186)?(. - _ebase_address):__vector_offset_default
 *(.vector_186)
                0x000000009d000260                . = ALIGN (0x4)
                0x0000000000000260                __vector_offset_187 = DEFINED (__vector_dispatch_187)?(. - _ebase_address):__vector_offset_default
 *(.vector_187)
                0x000000009d000260                . = ALIGN (0x4)
                0x0000000000000260                __vector_offset_188 = DEFINED (__vector_dispatch_188)?(. - _ebase_address):__vector_offset_default
 *(.vector_188)
                0x000000009d000260                . = ALIGN (0x4)
                0x0000000000000260                __vector_offset_189 = DEFINED (__vector_dispatch_189)?(. - _ebase_address):__vector_offset_default
 *(.vector_189)
                0x000000009d000260                . = ALIGN (0x4)
                0x0000000000000260                __vector_offset_190 = DEFINED (__vector_dispatch_190)?(. - _ebase_address):__vector_offset_default
 *(.vector_190)
                0x000000009d000260                . = ALIGN (0x4)
                0x0000000000000260                __vector_offset_191 = DEFINED (__vector_dispatch_191)?(. - _ebase_address):__vector_offset_default
 *(.vector_191)
                0x000000009d000260                . = ALIGN (0x4)
                0x0000000000000260                __vector_offset_192 = DEFINED (__vector_dispatch_192)?(. - _ebase_address):__vector_offset_default
 *(.vector_192)
                0x000000009d000260                . = ALIGN (0x4)
                0x0000000000000260                __vector_offset_193 = DEFINED (__vector_dispatch_193)?(. - _ebase_address):__vector_offset_default
 *(.vector_193)
                0x000000009d000260                . = ALIGN (0x4)
                0x0000000000000260                __vector_offset_194 = DEFINED (__vector_dispatch_194)?(. - _ebase_address):__vector_offset_default
 *(.vector_194)
                0x000000009d000260                . = ALIGN (0x4)
                0x0000000000000260                __vector_offset_195 = DEFINED (__vector_dispatch_195)?(. - _ebase_address):__vector_offset_default
 *(.vector_195)
                0x000000009d000260                . = ALIGN (0x4)
                0x0000000000000260                __vector_offset_196 = DEFINED (__vector_dispatch_196)?(. - _ebase_address):__vector_offset_default
 *(.vector_196)
                0x000000009d000260                . = ALIGN (0x4)
                0x0000000000000260                __vector_offset_197 = DEFINED (__vector_dispatch_197)?(. - _ebase_address):__vector_offset_default
 *(.vector_197)
                0x000000009d000260                . = ALIGN (0x4)
                0x0000000000000260                __vector_offset_198 = DEFINED (__vector_dispatch_198)?(. - _ebase_address):__vector_offset_default
 *(.vector_198)
                0x000000009d000260                . = ALIGN (0x4)
                0x0000000000000260                __vector_offset_199 = DEFINED (__vector_dispatch_199)?(. - _ebase_address):__vector_offset_default
 *(.vector_199)
                0x000000009d000260                . = ALIGN (0x4)
                0x0000000000000260                __vector_offset_200 = DEFINED (__vector_dispatch_200)?(. - _ebase_address):__vector_offset_default
 *(.vector_200)
                0x000000009d000260                . = ALIGN (0x4)
                0x0000000000000260                __vector_offset_201 = DEFINED (__vector_dispatch_201)?(. - _ebase_address):__vector_offset_default
 *(.vector_201)
                0x000000009d000260                . = ALIGN (0x4)
                0x0000000000000260                __vector_offset_202 = DEFINED (__vector_dispatch_202)?(. - _ebase_address):__vector_offset_default
 *(.vector_202)
                0x000000009d000260                . = ALIGN (0x4)
                0x0000000000000260                __vector_offset_203 = DEFINED (__vector_dispatch_203)?(. - _ebase_address):__vector_offset_default
 *(.vector_203)
                0x000000009d000260                . = ALIGN (0x4)
                0x0000000000000260                __vector_offset_204 = DEFINED (__vector_dispatch_204)?(. - _ebase_address):__vector_offset_default
 *(.vector_204)
                0x000000009d000260                . = ALIGN (0x4)
                0x0000000000000260                __vector_offset_205 = DEFINED (__vector_dispatch_205)?(. - _ebase_address):__vector_offset_default
 *(.vector_205)
                0x000000009d000260                . = ALIGN (0x4)
                0x0000000000000260                __vector_offset_206 = DEFINED (__vector_dispatch_206)?(. - _ebase_address):__vector_offset_default
 *(.vector_206)
                0x000000009d000260                . = ALIGN (0x4)
                0x0000000000000260                __vector_offset_207 = DEFINED (__vector_dispatch_207)?(. - _ebase_address):__vector_offset_default
 *(.vector_207)
                0x000000009d000260                . = ALIGN (0x4)
                0x0000000000000260                __vector_offset_208 = DEFINED (__vector_dispatch_208)?(. - _ebase_address):__vector_offset_default
 *(.vector_208)
                0x000000009d000260                . = ALIGN (0x4)
                0x0000000000000260                __vector_offset_209 = DEFINED (__vector_dispatch_209)?(. - _ebase_address):__vector_offset_default
 *(.vector_209)
                0x000000009d000260                . = ALIGN (0x4)
                0x0000000000000260                __vector_offset_210 = DEFINED (__vector_dispatch_210)?(. - _ebase_address):__vector_offset_default
 *(.vector_210)
                0x000000009d000260                . = ALIGN (0x4)
                0x0000000000000260                __vector_offset_211 = DEFINED (__vector_dispatch_211)?(. - _ebase_address):__vector_offset_default
 *(.vector_211)
                0x000000009d000260                . = ALIGN (0x4)
                0x0000000000000260                __vector_offset_212 = DEFINED (__vector_dispatch_212)?(. - _ebase_address):__vector_offset_default
 *(.vector_212)
                0x000000009d000260                . = ALIGN (0x4)
                0x0000000000000260                __vector_offset_213 = DEFINED (__vector_dispatch_213)?(. - _ebase_address):__vector_offset_default
 *(.vector_213)
                0x000000009d000260                . = ALIGN (0x4)
                0x0000000000000260                __vector_offset_214 = DEFINED (__vector_dispatch_214)?(. - _ebase_address):__vector_offset_default
 *(.vector_214)
                0x000000009d000260                . = ALIGN (0x4)
                0x0000000000000260                __vector_offset_215 = DEFINED (__vector_dispatch_215)?(. - _ebase_address):__vector_offset_default
 *(.vector_215)
                0x000000009d000260                . = ALIGN (0x4)
                0x0000000000000260                __vector_offset_216 = DEFINED (__vector_dispatch_216)?(. - _ebase_address):__vector_offset_default
 *(.vector_216)
                0x000000009d000260                . = ALIGN (0x4)
                0x0000000000000260                __vector_offset_217 = DEFINED (__vector_dispatch_217)?(. - _ebase_address):__vector_offset_default
 *(.vector_217)
                0x000000009d000260                . = ALIGN (0x4)
                0x0000000000000260                __vector_offset_218 = DEFINED (__vector_dispatch_218)?(. - _ebase_address):__vector_offset_default
 *(.vector_218)
                0x000000009d000260                . = ALIGN (0x4)
                0x0000000000000260                __vector_offset_219 = DEFINED (__vector_dispatch_219)?(. - _ebase_address):__vector_offset_default
 *(.vector_219)
                0x000000009d000260                . = ALIGN (0x4)
                0x0000000000000260                __vector_offset_220 = DEFINED (__vector_dispatch_220)?(. - _ebase_address):__vector_offset_default
 *(.vector_220)
                0x000000009d000260                . = ALIGN (0x4)
                0x0000000000000260                __vector_offset_221 = DEFINED (__vector_dispatch_221)?(. - _ebase_address):__vector_offset_default
 *(.vector_221)
                0x000000009d000260                . = ALIGN (0x4)
                0x0000000000000260                __vector_offset_222 = DEFINED (__vector_dispatch_222)?(. - _ebase_address):__vector_offset_default
 *(.vector_222)
                0x000000009d000260                . = ALIGN (0x4)
                0x0000000000000260                __vector_offset_223 = DEFINED (__vector_dispatch_223)?(. - _ebase_address):__vector_offset_default
 *(.vector_223)
                0x000000009d000260                . = ALIGN (0x4)
                0x0000000000000260                __vector_offset_224 = DEFINED (__vector_dispatch_224)?(. - _ebase_address):__vector_offset_default
 *(.vector_224)
                0x000000009d000260                . = ALIGN (0x4)
                0x0000000000000260                __vector_offset_225 = DEFINED (__vector_dispatch_225)?(. - _ebase_address):__vector_offset_default
 *(.vector_225)
                0x000000009d000260                . = ALIGN (0x4)
                0x0000000000000260                __vector_offset_226 = DEFINED (__vector_dispatch_226)?(. - _ebase_address):__vector_offset_default
 *(.vector_226)
                0x000000009d000260                . = ALIGN (0x4)
                0x0000000000000260                __vector_offset_227 = DEFINED (__vector_dispatch_227)?(. - _ebase_address):__vector_offset_default
 *(.vector_227)
                0x000000009d000260                . = ALIGN (0x4)
                0x0000000000000260                __vector_offset_228 = DEFINED (__vector_dispatch_228)?(. - _ebase_address):__vector_offset_default
 *(.vector_228)
                0x000000009d000260                . = ALIGN (0x4)
                0x0000000000000260                __vector_offset_229 = DEFINED (__vector_dispatch_229)?(. - _ebase_address):__vector_offset_default
 *(.vector_229)
                0x000000009d000260                . = ALIGN (0x4)
                0x0000000000000260                __vector_offset_230 = DEFINED (__vector_dispatch_230)?(. - _ebase_address):__vector_offset_default
 *(.vector_230)
                0x000000009d000260                . = ALIGN (0x4)
                0x0000000000000260                __vector_offset_231 = DEFINED (__vector_dispatch_231)?(. - _ebase_address):__vector_offset_default
 *(.vector_231)
                0x000000009d000260                . = ALIGN (0x4)
                0x0000000000000260                __vector_offset_232 = DEFINED (__vector_dispatch_232)?(. - _ebase_address):__vector_offset_default
 *(.vector_232)
                0x000000009d000260                . = ALIGN (0x4)
                0x0000000000000260                __vector_offset_233 = DEFINED (__vector_dispatch_233)?(. - _ebase_address):__vector_offset_default
 *(.vector_233)
                0x000000009d000260                . = ALIGN (0x4)
                0x0000000000000260                __vector_offset_234 = DEFINED (__vector_dispatch_234)?(. - _ebase_address):__vector_offset_default
 *(.vector_234)
                0x000000009d000260                . = ALIGN (0x4)
                0x0000000000000260                __vector_offset_235 = DEFINED (__vector_dispatch_235)?(. - _ebase_address):__vector_offset_default
 *(.vector_235)
                0x000000009d000260                . = ALIGN (0x4)
                0x0000000000000260                __vector_offset_236 = DEFINED (__vector_dispatch_236)?(. - _ebase_address):__vector_offset_default
 *(.vector_236)
                0x000000009d000260                . = ALIGN (0x4)
                0x0000000000000260                __vector_offset_237 = DEFINED (__vector_dispatch_237)?(. - _ebase_address):__vector_offset_default
 *(.vector_237)
                0x000000009d000260                . = ALIGN (0x4)
                0x0000000000000260                __vector_offset_238 = DEFINED (__vector_dispatch_238)?(. - _ebase_address):__vector_offset_default
 *(.vector_238)
                0x000000009d000260                . = ALIGN (0x4)
                0x0000000000000260                __vector_offset_239 = DEFINED (__vector_dispatch_239)?(. - _ebase_address):__vector_offset_default
 *(.vector_239)
                0x000000009d000260                . = ALIGN (0x4)
                0x0000000000000260                __vector_offset_240 = DEFINED (__vector_dispatch_240)?(. - _ebase_address):__vector_offset_default
 *(.vector_240)
                0x000000009d000260                . = ALIGN (0x4)
                0x0000000000000260                __vector_offset_241 = DEFINED (__vector_dispatch_241)?(. - _ebase_address):__vector_offset_default
 *(.vector_241)
                0x000000009d000260                . = ALIGN (0x4)
                0x0000000000000260                __vector_offset_242 = DEFINED (__vector_dispatch_242)?(. - _ebase_address):__vector_offset_default
 *(.vector_242)
                0x000000009d000260                . = ALIGN (0x4)
                0x0000000000000260                __vector_offset_243 = DEFINED (__vector_dispatch_243)?(. - _ebase_address):__vector_offset_default
 *(.vector_243)
                0x000000009d000260                . = ALIGN (0x4)
                0x0000000000000260                __vector_offset_244 = DEFINED (__vector_dispatch_244)?(. - _ebase_address):__vector_offset_default
 *(.vector_244)
                0x000000009d000260                . = ALIGN (0x4)
                0x0000000000000260                __vector_offset_245 = DEFINED (__vector_dispatch_245)?(. - _ebase_address):__vector_offset_default
 *(.vector_245)
                0x000000009d000260                . = ALIGN (0x4)
                0x0000000000000260                __vector_offset_246 = DEFINED (__vector_dispatch_246)?(. - _ebase_address):__vector_offset_default
 *(.vector_246)
                0x000000009d000260                . = ALIGN (0x4)
                0x0000000000000260                __vector_offset_247 = DEFINED (__vector_dispatch_247)?(. - _ebase_address):__vector_offset_default
 *(.vector_247)
                0x000000009d000260                . = ALIGN (0x4)
                0x0000000000000260                __vector_offset_248 = DEFINED (__vector_dispatch_248)?(. - _ebase_address):__vector_offset_default
 *(.vector_248)
                0x000000009d000260                . = ALIGN (0x4)
                0x0000000000000260                __vector_offset_249 = DEFINED (__vector_dispatch_249)?(. - _ebase_address):__vector_offset_default
 *(.vector_249)
                0x000000009d000260                . = ALIGN (0x4)
                0x0000000000000260                __vector_offset_250 = DEFINED (__vector_dispatch_250)?(. - _ebase_address):__vector_offset_default
 *(.vector_250)
                0x000000009d000260                . = ALIGN (0x4)
                0x0000000000000260                __vector_offset_251 = DEFINED (__vector_dispatch_251)?(. - _ebase_address):__vector_offset_default
 *(.vector_251)
                0x000000009d000260                . = ALIGN (0x4)
                0x0000000000000260                __vector_offset_252 = DEFINED (__vector_dispatch_252)?(. - _ebase_address):__vector_offset_default
 *(.vector_252)
                0x000000009d000260                . = ALIGN (0x4)
                0x0000000000000260                __vector_offset_253 = DEFINED (__vector_dispatch_253)?(. - _ebase_address):__vector_offset_default
 *(.vector_253)
                0x000000009d000260                . = ALIGN (0x4)
                0x0000000000000260                __vector_offset_254 = DEFINED (__vector_dispatch_254)?(. - _ebase_address):__vector_offset_default
 *(.vector_254)
                0x000000009d000260                . = ALIGN (0x4)
                0x0000000000000260                __vector_offset_255 = DEFINED (__vector_dispatch_255)?(. - _ebase_address):__vector_offset_default
 *(.vector_255)
                0x000000009d000260                . = ALIGN (0x4)
                0x0000000000000260                __vector_offset_default = (. - _ebase_address)
 *(.vector_default)
 .vector_default
                0x000000009d000260       0x48 e:/program files (x86)/microchip/xc32/v4.10/bin/bin/../../lib/gcc/pic32mx/8.3.1/../../../../pic32mx/lib/fpu64\libpic32.a(defaultinterrupt.o)
                0x000000009d000260                _DefaultInterrupt

.startup
 *(.startup)

.text           0x000000009d0002a8        0x0
 *(.stub .gnu.linkonce.t.*)
 *(.text.*personality*)
 *(.mips16.fn.*)
 *(.mips16.call.*)
 *(.gnu.warning)
                0x000000009d0002a8                . = ALIGN (0x4)

.init           0x000000009d0002a8        0x0
 *crti.o(.init)
 *crtbegin.o(.init)
 *(EXCLUDE_FILE(*crtn.o *crtend?.o *crtend.o) .init)
 *crtend.o(.init)
 *crtn.o(.init)
                0x000000009d0002a8                . = ALIGN (0x4)

.fini           0x000000009d0002a8        0x0
 *(.fini)
                0x000000009d0002a8                . = ALIGN (0x4)

.preinit_array  0x000000009d0002a8        0x0
                [!provide]                        PROVIDE (__preinit_array_start = .)
 *(.preinit_array)
                [!provide]                        PROVIDE (__preinit_array_end = .)
                0x000000009d0002a8                . = ALIGN (0x4)

.init_array     0x000000009d0002a8        0x0
                [!provide]                        PROVIDE (__init_array_start = .)
 *(SORT_BY_NAME(.init_array.*))
 *(.init_array)
                [!provide]                        PROVIDE (__init_array_end = .)
                0x000000009d0002a8                . = ALIGN (0x4)

.fini_array     0x000000009d0002a8        0x0
                [!provide]                        PROVIDE (__fini_array_start = .)
 *(SORT_BY_NAME(.fini_array.*))
 *(.fini_array)
                [!provide]                        PROVIDE (__fini_array_end = .)
                0x000000009d0002a8                . = ALIGN (0x4)

.ctors          0x000000009d0002a8        0x0
 *crtbegin.o(.ctors)
 *crtbegin?.o(.ctors)
 *(EXCLUDE_FILE(*crtend?.o *crtend.o) .ctors)
 *(SORT_BY_NAME(.ctors.*))
 *(.ctors)
                0x000000009d0002a8                . = ALIGN (0x4)

.dtors          0x000000009d0002a8        0x0
 *crtbegin.o(.dtors)
 *crtbegin?.o(.dtors)
 *(EXCLUDE_FILE(*crtend?.o *crtend.o) .dtors)
 *(SORT_BY_NAME(.dtors.*))
 *(.dtors)
                0x000000009d0002a8                . = ALIGN (0x4)

.rodata         0x000000009d0002a8        0x0
 *(.gnu.linkonce.r.*)
 *(.rodata1)
                0x000000009d0002a8                . = ALIGN (0x4)

.sdata2         0x000000009d0002a8        0x0
 *(.sdata2 .sdata2.* .gnu.linkonce.s2.*)
                0x000000009d0002a8                . = ALIGN (0x4)

.sbss2          0x000000009d0002a8        0x0
 *(.sbss2 .sbss2.* .gnu.linkonce.sb2.*)
                0x000000009d0002a8                . = ALIGN (0x4)

.eh_frame_hdr
 *(.eh_frame_hdr)
                0x000000009d0002a8                . = ALIGN (0x4)

.eh_frame
 *(.eh_frame)
                0x000000009d0002a8                . = ALIGN (0x4)

.gcc_except_table
 *(.gcc_except_table .gcc_except_table.*)
                0x000000009d0002a8                . = ALIGN (0x4)

.dbg_data       0x0000000080000000        0x0
                0x0000000080000000                . = (. + DEFINED (_DEBUGGER)?0x200:0x0)
                0x0000000080000000                . = (. + DEFINED (_DEBUGGER)?0x80:0x0)
                0x0000000080000000                . = (. + DEFINED (_DEBUGGER)?0x100:0x0)

.jcr            0x0000000080000000        0x0
 *(.jcr)
                0x0000000080000000                . = ALIGN (0x4)

.eh_frame
 *(.eh_frame)
                0x0000000080000000                . = ALIGN (0x4)

.gcc_except_table
 *(.gcc_except_table .gcc_except_table.*)
                0x0000000080000000                . = ALIGN (0x4)

.persist        0x0000000080000000        0x0
                0x0000000080000000                _persist_begin = .
 *(.persist .persist.*)
                0x0000000080000000                . = ALIGN (0x4)
                0x0000000080000000                _persist_end = .

.data           0x0000000080000000        0x0
 *(.gnu.linkonce.d.*)
 *(.data1)
                0x0000000080000000                . = ALIGN (0x4)
                0x0000000080000000                . = .
                0x0000000080007ff0                _gp = (ALIGN (0x10) + 0x7ff0)

.got            0x0000000080000000        0x0
 *(.got.plt)
 *(.got)
                0x0000000080000000                . = ALIGN (0x4)

.sdata          0x0000000080000000       0x7c
                0x0000000080000000                _sdata_begin = .
 *(.sdata .sdata.* .gnu.linkonce.s.*)
 .sdata         0x0000000080000000        0x6 build/pic32mk_mcm_curiosity_pro/production/_ext/423055883/Coordinate_transform.o
 *fill*         0x0000000080000006        0x2 
 .sdata         0x0000000080000008        0xc build/pic32mk_mcm_curiosity_pro/production/_ext/423055883/FOC_Control.o
                0x0000000080000010                IF_Current
 .sdata         0x0000000080000014        0x6 build/pic32mk_mcm_curiosity_pro/production/_ext/423055883/Motor.o
 *fill*         0x000000008000001a        0x2 
 .sdata         0x000000008000001c        0x6 build/pic32mk_mcm_curiosity_pro/production/_ext/423055883/PI_Cale.o
 *fill*         0x0000000080000022        0x2 
 .sdata         0x0000000080000024        0x6 build/pic32mk_mcm_curiosity_pro/production/_ext/423055883/SVPWM.o
 *fill*         0x000000008000002a        0x2 
 .sdata         0x000000008000002c        0x6 build/pic32mk_mcm_curiosity_pro/production/_ext/1913420649/Speed_Enconder_HALLCAL.o
 *fill*         0x0000000080000032        0x2 
 .sdata         0x0000000080000034        0x6 build/pic32mk_mcm_curiosity_pro/production/_ext/1224054987/plib_adchs.o
 *fill*         0x000000008000003a        0x2 
 .sdata         0x000000008000003c        0xc build/pic32mk_mcm_curiosity_pro/production/_ext/1540640169/plib_i2c1_master.o
                0x0000000080000044                transferStatus
 .sdata         0x0000000080000048        0x6 build/pic32mk_mcm_curiosity_pro/production/_ext/1163999990/xc32_monitor.o
 *fill*         0x000000008000004e        0x2 
 .sdata         0x0000000080000050        0x6 build/pic32mk_mcm_curiosity_pro/production/_ext/1433418692/initialization.o
 *fill*         0x0000000080000056        0x2 
 .sdata         0x0000000080000058        0x6 build/pic32mk_mcm_curiosity_pro/production/_ext/1433418692/interrupts.o
 *fill*         0x000000008000005e        0x2 
 .sdata         0x0000000080000060        0x6 build/pic32mk_mcm_curiosity_pro/production/_ext/1433418692/exceptions.o
 *fill*         0x0000000080000066        0x2 
 .sdata         0x0000000080000068        0xc build/pic32mk_mcm_curiosity_pro/production/_ext/813588705/vofa.o
 .sdata         0x0000000080000074        0x7 build/pic32mk_mcm_curiosity_pro/production/_ext/1360937237/main.o
                0x000000008000007c                . = ALIGN (0x4)
 *fill*         0x000000008000007b        0x1 
                0x000000008000007c                _sdata_end = .

.lit8
 *(.lit8)

.lit4
 *(.lit4)
                0x000000008000007c                . = ALIGN (0x4)
                0x000000008000007c                _data_end = .
                0x000000008000007c                _bss_begin = .

.sbss           0x000000008000007c      0x270
                0x000000008000007c                _sbss_begin = .
 *(.dynsbss)
 *(.sbss .sbss.* .gnu.linkonce.sb.*)
 .sbss          0x000000008000007c        0xe build/pic32mk_mcm_curiosity_pro/production/_ext/423055883/Coordinate_transform.o
 *fill*         0x000000008000008a        0x2 
 .sbss          0x000000008000008c       0x2a build/pic32mk_mcm_curiosity_pro/production/_ext/423055883/FOC_Control.o
                0x0000000080000098                Fault_Code
                0x0000000080000099                Cal_Period
                0x000000008000009a                Up_Time
                0x000000008000009c                Down_Time
                0x000000008000009e                Observe_Switch_flag
                0x000000008000009f                Speed_Cal_time
                0x00000000800000a0                iq_ref
                0x00000000800000a4                id_ref
 *fill*         0x00000000800000b6        0x2 
 .sbss          0x00000000800000b8       0x14 build/pic32mk_mcm_curiosity_pro/production/_ext/423055883/Motor.o
 .sbss          0x00000000800000cc        0xe build/pic32mk_mcm_curiosity_pro/production/_ext/423055883/PI_Cale.o
 *fill*         0x00000000800000da        0x2 
 .sbss          0x00000000800000dc        0xf build/pic32mk_mcm_curiosity_pro/production/_ext/423055883/SVPWM.o
 *fill*         0x00000000800000eb        0x1 
 .sbss          0x00000000800000ec       0x17 build/pic32mk_mcm_curiosity_pro/production/_ext/1913420649/Speed_Enconder_HALLCAL.o
 *fill*         0x0000000080000103        0x1 
 .sbss          0x0000000080000104       0x4c build/pic32mk_mcm_curiosity_pro/production/_ext/1224054987/plib_adchs.o
                0x0000000080000110                result_ready
                0x0000000080000111                result_ready1
                0x0000000080000118                NTC_ERROR
 .sbss          0x0000000080000150        0x1 build/pic32mk_mcm_curiosity_pro/production/_ext/1068833501/plib_cdac2.o
 .sbss          0x0000000080000151        0x1 build/pic32mk_mcm_curiosity_pro/production/_ext/1068833501/plib_cdac3.o
 .sbss          0x0000000080000152        0x1 build/pic32mk_mcm_curiosity_pro/production/_ext/865762238/plib_clk.o
 .sbss          0x0000000080000153        0x3 build/pic32mk_mcm_curiosity_pro/production/_ext/1978316258/plib_eeprom.o
 .sbss          0x0000000080000156        0x2 build/pic32mk_mcm_curiosity_pro/production/_ext/1068756373/plib_evic.o
 .sbss          0x0000000080000158        0x2 build/pic32mk_mcm_curiosity_pro/production/_ext/1068702545/plib_gpio.o
 *fill*         0x000000008000015a        0x2 
 .sbss          0x000000008000015c       0x14 build/pic32mk_mcm_curiosity_pro/production/_ext/1540640169/plib_i2c1_master.o
                0x0000000080000168                ackData
                0x000000008000016c                state
 .sbss          0x0000000080000170        0x1 build/pic32mk_mcm_curiosity_pro/production/_ext/1068655703/plib_icap4.o
 .sbss          0x0000000080000171        0x1 build/pic32mk_mcm_curiosity_pro/production/_ext/1068655703/plib_icap5.o
 .sbss          0x0000000080000172        0x1 build/pic32mk_mcm_curiosity_pro/production/_ext/1068655703/plib_icap3.o
 .sbss          0x0000000080000173        0x4 build/pic32mk_mcm_curiosity_pro/production/_ext/1235120400/plib_mcpwm.o
 .sbss          0x0000000080000177        0x1 build/pic32mk_mcm_curiosity_pro/production/_ext/1068476585/plib_ocmp2.o
 .sbss          0x0000000080000178        0x1 build/pic32mk_mcm_curiosity_pro/production/_ext/1068476585/plib_ocmp3.o
 .sbss          0x0000000080000179        0x1 build/pic32mk_mcm_curiosity_pro/production/_ext/1068476585/plib_ocmp4.o
 .sbss          0x000000008000017a        0x1 build/pic32mk_mcm_curiosity_pro/production/_ext/865749003/plib_qei1.o
 *fill*         0x000000008000017b        0x1 
 .sbss          0x000000008000017c        0xa build/pic32mk_mcm_curiosity_pro/production/_ext/865745863/plib_tmr2.o
 *fill*         0x0000000080000186        0x2 
 .sbss          0x0000000080000188       0x13 build/pic32mk_mcm_curiosity_pro/production/_ext/865745863/plib_tmr3.o
 *fill*         0x000000008000019b        0x1 
 .sbss          0x000000008000019c        0xf build/pic32mk_mcm_curiosity_pro/production/_ext/1068299602/plib_uart6.o
                0x000000008000019c                rxBuffer
                0x00000000800001a4                nBytesReadxzw
                0x00000000800001a8                txThresholdEventReceived
                0x00000000800001a9                rxThresholdEventReceived
                0x00000000800001aa                xxx
 .sbss          0x00000000800001ab        0x1 build/pic32mk_mcm_curiosity_pro/production/_ext/227981847/plib_wdt.o
 .sbss          0x00000000800001ac        0xe build/pic32mk_mcm_curiosity_pro/production/_ext/1163999990/xc32_monitor.o
 *fill*         0x00000000800001ba        0x2 
 .sbss          0x00000000800001bc        0xe build/pic32mk_mcm_curiosity_pro/production/_ext/1433418692/initialization.o
 *fill*         0x00000000800001ca        0x2 
 .sbss          0x00000000800001cc        0xf build/pic32mk_mcm_curiosity_pro/production/_ext/1433418692/interrupts.o
 *fill*         0x00000000800001db        0x1 
 .sbss          0x00000000800001dc       0x16 build/pic32mk_mcm_curiosity_pro/production/_ext/1433418692/exceptions.o
 *fill*         0x00000000800001f2        0x2 
 .sbss          0x00000000800001f4       0x21 build/pic32mk_mcm_curiosity_pro/production/_ext/813588705/vofa.o
 *fill*         0x0000000080000215        0x3 
 .sbss          0x0000000080000218       0x69 build/pic32mk_mcm_curiosity_pro/production/_ext/1360937237/main.o
 *(.scommon)
 *fill*         0x0000000080000281        0x3 
 .scommon       0x0000000080000284       0x1e build/pic32mk_mcm_curiosity_pro/production/_ext/423055883/FOC_Control.o
                0x0000000080000284                Angler_err
                0x0000000080000288                JScope_data
                0x0000000080000290                IF_Angle
                0x0000000080000294                IF_Theta
                0x0000000080000298                Ext_Angle
                0x000000008000029c                Cal_time
                0x000000008000029e                Stall_time
                0x00000000800002a0                IF_Frq
 .scommon       0x00000000800002a2        0x4 build/pic32mk_mcm_curiosity_pro/production/_ext/423055883/Motor.o
                0x00000000800002a2                HFI_Speed
                0x00000000800002a4                M_SPEED
 *fill*         0x00000000800002a6        0x2 
 .scommon       0x00000000800002a8       0x18 build/pic32mk_mcm_curiosity_pro/production/_ext/1224054987/plib_adchs.o
                0x00000000800002a8                adc_count0
                0x00000000800002aa                adc_count21
                0x00000000800002ac                adc_count14
                0x00000000800002ae                adc_count12
                0x00000000800002b0                adc_count1
                0x00000000800002b4                NTC_Temp
                0x00000000800002b8                adc_count20
                0x00000000800002ba                adc_count13
                0x00000000800002bc                adc_count15
                0x00000000800002be                adc_count11
 .scommon       0x00000000800002c0        0x8 build/pic32mk_mcm_curiosity_pro/production/_ext/1068655703/plib_icap4.o
                0x00000000800002c0                icap4Obj
 .scommon       0x00000000800002c8        0x8 build/pic32mk_mcm_curiosity_pro/production/_ext/1068655703/plib_icap5.o
                0x00000000800002c8                icap5Obj
 .scommon       0x00000000800002d0        0x8 build/pic32mk_mcm_curiosity_pro/production/_ext/1068655703/plib_icap3.o
                0x00000000800002d0                icap3Obj
 .scommon       0x00000000800002d8        0x4 build/pic32mk_mcm_curiosity_pro/production/_ext/813588705/vofa.o
                0x00000000800002d8                fc
 .scommon       0x00000000800002dc       0x10 build/pic32mk_mcm_curiosity_pro/production/_ext/1360937237/main.o
                0x00000000800002dc                period
                0x00000000800002e0                j
                0x00000000800002e4                Init_Over
                0x00000000800002e8                input_voltage
                0x00000000800002ec                _sbss_end = .
                0x00000000800002ec                . = ALIGN (0x4)

.bss            0x00000000800002ec      0x648
 *(.dynbss)
 *(COMMON)
 COMMON         0x00000000800002ec      0x1a8 build/pic32mk_mcm_curiosity_pro/production/_ext/1224054987/plib_adchs.o
                0x00000000800002ec                ADCHS_CallbackObj
 COMMON         0x0000000080000494      0x400 build/pic32mk_mcm_curiosity_pro/production/_ext/1978316258/plib_eeprom.o
                0x0000000080000494                readData
                0x0000000080000694                writeData
 COMMON         0x0000000080000894       0x60 build/pic32mk_mcm_curiosity_pro/production/_ext/1235120400/plib_mcpwm.o
                0x0000000080000894                mcpwmObj
 COMMON         0x00000000800008f4       0x40 build/pic32mk_mcm_curiosity_pro/production/_ext/1068299602/plib_uart6.o
                0x00000000800008f4                uart6Obj
                0x0000000080000934                . = ALIGN ((. != 0x0)?0x4:0x1)
                0x0000000080000934                . = ALIGN (0x4)
                0x0000000080000934                _end = .
                0x0000000080000934                _bss_end = .
                0x0000000000040000                _bmxdudba_address = LENGTH (kseg0_data_mem)
                0x0000000000040000                _bmxdupba_address = LENGTH (kseg0_data_mem)

/DISCARD/
 *(.pdr)
 *(.rel.dyn)
 *(.note.GNU-stack)
 *(.note.GNU-stack)
 *(.gnu_debuglink)
 *(.gnu.lto_*)
 *(.discard)

.gptab.sdata
 *(.gptab.data)
 *(.gptab.sdata)

.gptab.sbss
 *(.gptab.bss)
 *(.gptab.sbss)

.mdebug.abi32   0x0000000000000000        0x0
 *(.mdebug.abi32)
 .mdebug.abi32  0x0000000000000000        0x0 build/pic32mk_mcm_curiosity_pro/production/_ext/423055883/Coordinate_transform.o
 .mdebug.abi32  0x0000000000000000        0x0 build/pic32mk_mcm_curiosity_pro/production/_ext/423055883/FOC_Control.o
 .mdebug.abi32  0x0000000000000000        0x0 build/pic32mk_mcm_curiosity_pro/production/_ext/423055883/Motor.o
 .mdebug.abi32  0x0000000000000000        0x0 build/pic32mk_mcm_curiosity_pro/production/_ext/423055883/PI_Cale.o
 .mdebug.abi32  0x0000000000000000        0x0 build/pic32mk_mcm_curiosity_pro/production/_ext/423055883/SVPWM.o
 .mdebug.abi32  0x0000000000000000        0x0 build/pic32mk_mcm_curiosity_pro/production/_ext/1913420649/Speed_Enconder_HALLCAL.o
 .mdebug.abi32  0x0000000000000000        0x0 build/pic32mk_mcm_curiosity_pro/production/_ext/1224054987/plib_adchs.o
 .mdebug.abi32  0x0000000000000000        0x0 build/pic32mk_mcm_curiosity_pro/production/_ext/1068833501/plib_cdac2.o
 .mdebug.abi32  0x0000000000000000        0x0 build/pic32mk_mcm_curiosity_pro/production/_ext/1068833501/plib_cdac3.o
 .mdebug.abi32  0x0000000000000000        0x0 build/pic32mk_mcm_curiosity_pro/production/_ext/865762238/plib_clk.o
 .mdebug.abi32  0x0000000000000000        0x0 build/pic32mk_mcm_curiosity_pro/production/_ext/1978316258/plib_eeprom.o
 .mdebug.abi32  0x0000000000000000        0x0 build/pic32mk_mcm_curiosity_pro/production/_ext/1068756373/plib_evic.o
 .mdebug.abi32  0x0000000000000000        0x0 build/pic32mk_mcm_curiosity_pro/production/_ext/1068702545/plib_gpio.o
 .mdebug.abi32  0x0000000000000000        0x0 build/pic32mk_mcm_curiosity_pro/production/_ext/1540640169/plib_i2c1_master.o
 .mdebug.abi32  0x0000000000000000        0x0 build/pic32mk_mcm_curiosity_pro/production/_ext/1068655703/plib_icap4.o
 .mdebug.abi32  0x0000000000000000        0x0 build/pic32mk_mcm_curiosity_pro/production/_ext/1068655703/plib_icap5.o
 .mdebug.abi32  0x0000000000000000        0x0 build/pic32mk_mcm_curiosity_pro/production/_ext/1068655703/plib_icap3.o
 .mdebug.abi32  0x0000000000000000        0x0 build/pic32mk_mcm_curiosity_pro/production/_ext/1235120400/plib_mcpwm.o
 .mdebug.abi32  0x0000000000000000        0x0 build/pic32mk_mcm_curiosity_pro/production/_ext/1068476585/plib_ocmp2.o
 .mdebug.abi32  0x0000000000000000        0x0 build/pic32mk_mcm_curiosity_pro/production/_ext/1068476585/plib_ocmp3.o
 .mdebug.abi32  0x0000000000000000        0x0 build/pic32mk_mcm_curiosity_pro/production/_ext/1068476585/plib_ocmp4.o
 .mdebug.abi32  0x0000000000000000        0x0 build/pic32mk_mcm_curiosity_pro/production/_ext/865749003/plib_qei1.o
 .mdebug.abi32  0x0000000000000000        0x0 build/pic32mk_mcm_curiosity_pro/production/_ext/865745863/plib_tmr2.o
 .mdebug.abi32  0x0000000000000000        0x0 build/pic32mk_mcm_curiosity_pro/production/_ext/865745863/plib_tmr3.o
 .mdebug.abi32  0x0000000000000000        0x0 build/pic32mk_mcm_curiosity_pro/production/_ext/1068299602/plib_uart6.o
 .mdebug.abi32  0x0000000000000000        0x0 build/pic32mk_mcm_curiosity_pro/production/_ext/227981847/plib_wdt.o
 .mdebug.abi32  0x0000000000000000        0x0 build/pic32mk_mcm_curiosity_pro/production/_ext/1163999990/xc32_monitor.o
 .mdebug.abi32  0x0000000000000000        0x0 build/pic32mk_mcm_curiosity_pro/production/_ext/1433418692/initialization.o
 .mdebug.abi32  0x0000000000000000        0x0 build/pic32mk_mcm_curiosity_pro/production/_ext/1433418692/interrupts.o
 .mdebug.abi32  0x0000000000000000        0x0 build/pic32mk_mcm_curiosity_pro/production/_ext/1433418692/exceptions.o
 .mdebug.abi32  0x0000000000000000        0x0 build/pic32mk_mcm_curiosity_pro/production/_ext/1360937237/newfile.o
 .mdebug.abi32  0x0000000000000000        0x0 build/pic32mk_mcm_curiosity_pro/production/_ext/813588705/vofa.o
 .mdebug.abi32  0x0000000000000000        0x0 build/pic32mk_mcm_curiosity_pro/production/_ext/1360937237/main.o
 .mdebug.abi32  0x0000000000000000        0x0 e:/program files (x86)/microchip/xc32/v4.10/bin/bin/../../lib/gcc/pic32mx/8.3.1/../../../../pic32mx/lib/fpu64\libpic32.a(default-on-reset.o)
 .mdebug.abi32  0x0000000000000000        0x0 e:/program files (x86)/microchip/xc32/v4.10/bin/bin/../../lib/gcc/pic32mx/8.3.1/../../../../pic32mx/lib/fpu64\libpic32.a(default-on-bootstrap.o)
 .mdebug.abi32  0x0000000000000000        0x0 e:/program files (x86)/microchip/xc32/v4.10/bin/bin/../../lib/gcc/pic32mx/8.3.1/../../../../pic32mx/lib/fpu64\libpic32.a(defaultinterrupt.o)
 .mdebug.abi32  0x0000000000000000        0x0 e:/program files (x86)/microchip/xc32/v4.10/bin/bin/../../lib/gcc/pic32mx/8.3.1/../../../../pic32mx/lib/fpu64\libm-musl.a(cosf.o)
 .mdebug.abi32  0x0000000000000000        0x0 e:/program files (x86)/microchip/xc32/v4.10/bin/bin/../../lib/gcc/pic32mx/8.3.1/../../../../pic32mx/lib/fpu64\libm-musl.a(expf.o)
 .mdebug.abi32  0x0000000000000000        0x0 e:/program files (x86)/microchip/xc32/v4.10/bin/bin/../../lib/gcc/pic32mx/8.3.1/../../../../pic32mx/lib/fpu64\libm-musl.a(log.o)
 .mdebug.abi32  0x0000000000000000        0x0 e:/program files (x86)/microchip/xc32/v4.10/bin/bin/../../lib/gcc/pic32mx/8.3.1/../../../../pic32mx/lib/fpu64\libm-musl.a(scalbnf.o)
 .mdebug.abi32  0x0000000000000000        0x0 e:/program files (x86)/microchip/xc32/v4.10/bin/bin/../../lib/gcc/pic32mx/8.3.1/../../../../pic32mx/lib/fpu64\libm-musl.a(sinf.o)
 .mdebug.abi32  0x0000000000000000        0x0 e:/program files (x86)/microchip/xc32/v4.10/bin/bin/../../lib/gcc/pic32mx/8.3.1/../../../../pic32mx/lib/fpu64\libm-musl.a(sqrtf.o)
 .mdebug.abi32  0x0000000000000000        0x0 e:/program files (x86)/microchip/xc32/v4.10/bin/bin/../../lib/gcc/pic32mx/8.3.1/../../../../pic32mx/lib/fpu64\libm-musl.a(__cosdf.o)
 .mdebug.abi32  0x0000000000000000        0x0 e:/program files (x86)/microchip/xc32/v4.10/bin/bin/../../lib/gcc/pic32mx/8.3.1/../../../../pic32mx/lib/fpu64\libm-musl.a(__rem_pio2f.o)
 .mdebug.abi32  0x0000000000000000        0x0 e:/program files (x86)/microchip/xc32/v4.10/bin/bin/../../lib/gcc/pic32mx/8.3.1/../../../../pic32mx/lib/fpu64\libm-musl.a(__sindf.o)
 .mdebug.abi32  0x0000000000000000        0x0 e:/program files (x86)/microchip/xc32/v4.10/bin/bin/../../lib/gcc/pic32mx/8.3.1/../../../../pic32mx/lib/fpu64\libm-musl.a(__rem_pio2_large.o)
 .mdebug.abi32  0x0000000000000000        0x0 e:/program files (x86)/microchip/xc32/v4.10/bin/bin/../../lib/gcc/pic32mx/8.3.1/../../../../pic32mx/lib/fpu64\libm-musl.a(floor.o)
 .mdebug.abi32  0x0000000000000000        0x0 e:/program files (x86)/microchip/xc32/v4.10/bin/bin/../../lib/gcc/pic32mx/8.3.1/../../../../pic32mx/lib/fpu64\libm-musl.a(scalbn.o)
 .mdebug.abi32  0x0000000000000000        0x0 e:/program files (x86)/microchip/xc32/v4.10/bin/bin/../../lib/gcc/pic32mx/8.3.1/../../../../pic32mx/lib/fpu64\libpic32.a(errno.o)

.mdebug.abiN32
 *(.mdebug.abiN32)

.mdebug.abi64
 *(.mdebug.abi64)

.mdebug.abiO64
 *(.mdebug.abiO64)

.mdebug.eabi32
 *(.mdebug.eabi32)

.mdebug.eabi64
 *(.mdebug.eabi64)

.gcc_compiled_long32
 *(.gcc_compiled_long32)

.gcc_compiled_long64
 *(.gcc_compiled_long64)

.stab
 *(.stab)

.stabstr
 *(.stabstr)

.stab.excl
 *(.stab.excl)

.stab.exclstr
 *(.stab.exclstr)

.stab.index
 *(.stab.index)

.stab.indexstr
 *(.stab.indexstr)

.comment        0x0000000000000000       0x43
 *(.comment)
 .comment       0x0000000000000000       0x2b build/pic32mk_mcm_curiosity_pro/production/_ext/423055883/Coordinate_transform.o
                                         0x2c (size before relaxing)
 .comment       0x000000000000002b       0x2c build/pic32mk_mcm_curiosity_pro/production/_ext/423055883/FOC_Control.o
 .comment       0x000000000000002b       0x2c build/pic32mk_mcm_curiosity_pro/production/_ext/423055883/Motor.o
 .comment       0x000000000000002b       0x2c build/pic32mk_mcm_curiosity_pro/production/_ext/423055883/PI_Cale.o
 .comment       0x000000000000002b       0x2c build/pic32mk_mcm_curiosity_pro/production/_ext/423055883/SVPWM.o
 .comment       0x000000000000002b       0x2c build/pic32mk_mcm_curiosity_pro/production/_ext/1913420649/Speed_Enconder_HALLCAL.o
 .comment       0x000000000000002b       0x2c build/pic32mk_mcm_curiosity_pro/production/_ext/1224054987/plib_adchs.o
 .comment       0x000000000000002b       0x2c build/pic32mk_mcm_curiosity_pro/production/_ext/1068833501/plib_cdac2.o
 .comment       0x000000000000002b       0x2c build/pic32mk_mcm_curiosity_pro/production/_ext/1068833501/plib_cdac3.o
 .comment       0x000000000000002b       0x2c build/pic32mk_mcm_curiosity_pro/production/_ext/865762238/plib_clk.o
 .comment       0x000000000000002b       0x2c build/pic32mk_mcm_curiosity_pro/production/_ext/1978316258/plib_eeprom.o
 .comment       0x000000000000002b       0x2c build/pic32mk_mcm_curiosity_pro/production/_ext/1068756373/plib_evic.o
 .comment       0x000000000000002b       0x2c build/pic32mk_mcm_curiosity_pro/production/_ext/1068702545/plib_gpio.o
 .comment       0x000000000000002b       0x2c build/pic32mk_mcm_curiosity_pro/production/_ext/1540640169/plib_i2c1_master.o
 .comment       0x000000000000002b       0x2c build/pic32mk_mcm_curiosity_pro/production/_ext/1068655703/plib_icap4.o
 .comment       0x000000000000002b       0x2c build/pic32mk_mcm_curiosity_pro/production/_ext/1068655703/plib_icap5.o
 .comment       0x000000000000002b       0x2c build/pic32mk_mcm_curiosity_pro/production/_ext/1068655703/plib_icap3.o
 .comment       0x000000000000002b       0x2c build/pic32mk_mcm_curiosity_pro/production/_ext/1235120400/plib_mcpwm.o
 .comment       0x000000000000002b       0x2c build/pic32mk_mcm_curiosity_pro/production/_ext/1068476585/plib_ocmp2.o
 .comment       0x000000000000002b       0x2c build/pic32mk_mcm_curiosity_pro/production/_ext/1068476585/plib_ocmp3.o
 .comment       0x000000000000002b       0x2c build/pic32mk_mcm_curiosity_pro/production/_ext/1068476585/plib_ocmp4.o
 .comment       0x000000000000002b       0x2c build/pic32mk_mcm_curiosity_pro/production/_ext/865749003/plib_qei1.o
 .comment       0x000000000000002b       0x2c build/pic32mk_mcm_curiosity_pro/production/_ext/865745863/plib_tmr2.o
 .comment       0x000000000000002b       0x2c build/pic32mk_mcm_curiosity_pro/production/_ext/865745863/plib_tmr3.o
 .comment       0x000000000000002b       0x2c build/pic32mk_mcm_curiosity_pro/production/_ext/1068299602/plib_uart6.o
 .comment       0x000000000000002b       0x2c build/pic32mk_mcm_curiosity_pro/production/_ext/227981847/plib_wdt.o
 .comment       0x000000000000002b       0x2c build/pic32mk_mcm_curiosity_pro/production/_ext/1163999990/xc32_monitor.o
 .comment       0x000000000000002b       0x2c build/pic32mk_mcm_curiosity_pro/production/_ext/1433418692/initialization.o
 .comment       0x000000000000002b       0x2c build/pic32mk_mcm_curiosity_pro/production/_ext/1433418692/interrupts.o
 .comment       0x000000000000002b       0x2c build/pic32mk_mcm_curiosity_pro/production/_ext/1433418692/exceptions.o
 .comment       0x000000000000002b       0x2c build/pic32mk_mcm_curiosity_pro/production/_ext/1360937237/newfile.o
 .comment       0x000000000000002b       0x2c build/pic32mk_mcm_curiosity_pro/production/_ext/813588705/vofa.o
 .comment       0x000000000000002b       0x2c build/pic32mk_mcm_curiosity_pro/production/_ext/1360937237/main.o
 .comment       0x000000000000002b       0x18 e:/program files (x86)/microchip/xc32/v4.10/bin/bin/../../lib/gcc/pic32mx/8.3.1/../../../../pic32mx/lib/fpu64\libpic32.a(memset.o)
                                         0x19 (size before relaxing)
 .comment       0x0000000000000043       0x2c e:/program files (x86)/microchip/xc32/v4.10/bin/bin/../../lib/gcc/pic32mx/8.3.1/../../../../pic32mx/lib/fpu64\libpic32.a(default-on-reset.o)
 .comment       0x0000000000000043       0x2c e:/program files (x86)/microchip/xc32/v4.10/bin/bin/../../lib/gcc/pic32mx/8.3.1/../../../../pic32mx/lib/fpu64\libpic32.a(default-on-bootstrap.o)
 .comment       0x0000000000000043       0x2c e:/program files (x86)/microchip/xc32/v4.10/bin/bin/../../lib/gcc/pic32mx/8.3.1/../../../../pic32mx/lib/fpu64\libpic32.a(defaultinterrupt.o)
 .comment       0x0000000000000043       0x2c e:/program files (x86)/microchip/xc32/v4.10/bin/bin/../../lib/gcc/pic32mx/8.3.1/../../../../pic32mx/lib/fpu64\libm-musl.a(cosf.o)
 .comment       0x0000000000000043       0x2c e:/program files (x86)/microchip/xc32/v4.10/bin/bin/../../lib/gcc/pic32mx/8.3.1/../../../../pic32mx/lib/fpu64\libm-musl.a(expf.o)
 .comment       0x0000000000000043       0x2c e:/program files (x86)/microchip/xc32/v4.10/bin/bin/../../lib/gcc/pic32mx/8.3.1/../../../../pic32mx/lib/fpu64\libm-musl.a(log.o)
 .comment       0x0000000000000043       0x2c e:/program files (x86)/microchip/xc32/v4.10/bin/bin/../../lib/gcc/pic32mx/8.3.1/../../../../pic32mx/lib/fpu64\libm-musl.a(scalbnf.o)
 .comment       0x0000000000000043       0x2c e:/program files (x86)/microchip/xc32/v4.10/bin/bin/../../lib/gcc/pic32mx/8.3.1/../../../../pic32mx/lib/fpu64\libm-musl.a(sinf.o)
 .comment       0x0000000000000043       0x2c e:/program files (x86)/microchip/xc32/v4.10/bin/bin/../../lib/gcc/pic32mx/8.3.1/../../../../pic32mx/lib/fpu64\libm-musl.a(sqrtf.o)
 .comment       0x0000000000000043       0x2c e:/program files (x86)/microchip/xc32/v4.10/bin/bin/../../lib/gcc/pic32mx/8.3.1/../../../../pic32mx/lib/fpu64\libm-musl.a(__cosdf.o)
 .comment       0x0000000000000043       0x2c e:/program files (x86)/microchip/xc32/v4.10/bin/bin/../../lib/gcc/pic32mx/8.3.1/../../../../pic32mx/lib/fpu64\libm-musl.a(__rem_pio2f.o)
 .comment       0x0000000000000043       0x2c e:/program files (x86)/microchip/xc32/v4.10/bin/bin/../../lib/gcc/pic32mx/8.3.1/../../../../pic32mx/lib/fpu64\libm-musl.a(__sindf.o)
 .comment       0x0000000000000043       0x2c e:/program files (x86)/microchip/xc32/v4.10/bin/bin/../../lib/gcc/pic32mx/8.3.1/../../../../pic32mx/lib/fpu64\libm-musl.a(__rem_pio2_large.o)
 .comment       0x0000000000000043       0x2c e:/program files (x86)/microchip/xc32/v4.10/bin/bin/../../lib/gcc/pic32mx/8.3.1/../../../../pic32mx/lib/fpu64\libm-musl.a(floor.o)
 .comment       0x0000000000000043       0x2c e:/program files (x86)/microchip/xc32/v4.10/bin/bin/../../lib/gcc/pic32mx/8.3.1/../../../../pic32mx/lib/fpu64\libm-musl.a(scalbn.o)
 .comment       0x0000000000000043       0x2c e:/program files (x86)/microchip/xc32/v4.10/bin/bin/../../lib/gcc/pic32mx/8.3.1/../../../../pic32mx/lib/fpu64\libpic32.a(errno.o)

.debug
 *.elf(.debug)
 *(.debug)

.line
 *.elf(.line)
 *(.line)

.debug_srcinfo
 *.elf(.debug_srcinfo)
 *(.debug_srcinfo)

.debug_sfnames
 *.elf(.debug_sfnames)
 *(.debug_sfnames)

.debug_aranges  0x0000000000000000      0xee8
 *.elf(.debug_aranges)
 *(.debug_aranges)
 .debug_aranges
                0x0000000000000000       0x58 build/pic32mk_mcm_curiosity_pro/production/_ext/423055883/Coordinate_transform.o
 .debug_aranges
                0x0000000000000058       0xc0 build/pic32mk_mcm_curiosity_pro/production/_ext/423055883/FOC_Control.o
 .debug_aranges
                0x0000000000000118       0x80 build/pic32mk_mcm_curiosity_pro/production/_ext/423055883/Motor.o
 .debug_aranges
                0x0000000000000198       0x50 build/pic32mk_mcm_curiosity_pro/production/_ext/423055883/PI_Cale.o
 .debug_aranges
                0x00000000000001e8       0x40 build/pic32mk_mcm_curiosity_pro/production/_ext/423055883/SVPWM.o
 .debug_aranges
                0x0000000000000228       0x48 build/pic32mk_mcm_curiosity_pro/production/_ext/1913420649/Speed_Enconder_HALLCAL.o
 .debug_aranges
                0x0000000000000270      0x100 build/pic32mk_mcm_curiosity_pro/production/_ext/1224054987/plib_adchs.o
 .debug_aranges
                0x0000000000000370       0x28 build/pic32mk_mcm_curiosity_pro/production/_ext/1068833501/plib_cdac2.o
 .debug_aranges
                0x0000000000000398       0x28 build/pic32mk_mcm_curiosity_pro/production/_ext/1068833501/plib_cdac3.o
 .debug_aranges
                0x00000000000003c0       0x20 build/pic32mk_mcm_curiosity_pro/production/_ext/865762238/plib_clk.o
 .debug_aranges
                0x00000000000003e0       0x78 build/pic32mk_mcm_curiosity_pro/production/_ext/1978316258/plib_eeprom.o
 .debug_aranges
                0x0000000000000458       0x68 build/pic32mk_mcm_curiosity_pro/production/_ext/1068756373/plib_evic.o
 .debug_aranges
                0x00000000000004c0       0x60 build/pic32mk_mcm_curiosity_pro/production/_ext/1068702545/plib_gpio.o
 .debug_aranges
                0x0000000000000520       0xa0 build/pic32mk_mcm_curiosity_pro/production/_ext/1540640169/plib_i2c1_master.o
 .debug_aranges
                0x00000000000005c0       0x50 build/pic32mk_mcm_curiosity_pro/production/_ext/1068655703/plib_icap4.o
 .debug_aranges
                0x0000000000000610       0x50 build/pic32mk_mcm_curiosity_pro/production/_ext/1068655703/plib_icap5.o
 .debug_aranges
                0x0000000000000660       0x50 build/pic32mk_mcm_curiosity_pro/production/_ext/1068655703/plib_icap3.o
 .debug_aranges
                0x00000000000006b0       0xb0 build/pic32mk_mcm_curiosity_pro/production/_ext/1235120400/plib_mcpwm.o
 .debug_aranges
                0x0000000000000760       0x48 build/pic32mk_mcm_curiosity_pro/production/_ext/1068476585/plib_ocmp2.o
 .debug_aranges
                0x00000000000007a8       0x48 build/pic32mk_mcm_curiosity_pro/production/_ext/1068476585/plib_ocmp3.o
 .debug_aranges
                0x00000000000007f0       0x48 build/pic32mk_mcm_curiosity_pro/production/_ext/1068476585/plib_ocmp4.o
 .debug_aranges
                0x0000000000000838       0x50 build/pic32mk_mcm_curiosity_pro/production/_ext/865749003/plib_qei1.o
 .debug_aranges
                0x0000000000000888       0x70 build/pic32mk_mcm_curiosity_pro/production/_ext/865745863/plib_tmr2.o
 .debug_aranges
                0x00000000000008f8       0x90 build/pic32mk_mcm_curiosity_pro/production/_ext/865745863/plib_tmr3.o
 .debug_aranges
                0x0000000000000988      0x110 build/pic32mk_mcm_curiosity_pro/production/_ext/1068299602/plib_uart6.o
 .debug_aranges
                0x0000000000000a98       0x40 build/pic32mk_mcm_curiosity_pro/production/_ext/227981847/plib_wdt.o
 .debug_aranges
                0x0000000000000ad8       0x48 build/pic32mk_mcm_curiosity_pro/production/_ext/1163999990/xc32_monitor.o
 .debug_aranges
                0x0000000000000b20       0x40 build/pic32mk_mcm_curiosity_pro/production/_ext/1433418692/initialization.o
 .debug_aranges
                0x0000000000000b60       0x98 build/pic32mk_mcm_curiosity_pro/production/_ext/1433418692/interrupts.o
 .debug_aranges
                0x0000000000000bf8       0x48 build/pic32mk_mcm_curiosity_pro/production/_ext/1433418692/exceptions.o
 .debug_aranges
                0x0000000000000c40       0x18 build/pic32mk_mcm_curiosity_pro/production/_ext/1360937237/newfile.o
 .debug_aranges
                0x0000000000000c58       0x50 build/pic32mk_mcm_curiosity_pro/production/_ext/813588705/vofa.o
 .debug_aranges
                0x0000000000000ca8       0x60 build/pic32mk_mcm_curiosity_pro/production/_ext/1360937237/main.o
 .debug_aranges
                0x0000000000000d08       0x20 e:/program files (x86)/microchip/xc32/v4.10/bin/bin/../../lib/gcc/pic32mx/8.3.1/../../../../pic32mx/lib/fpu64\libpic32.a(default-on-reset.o)
 .debug_aranges
                0x0000000000000d28       0x20 e:/program files (x86)/microchip/xc32/v4.10/bin/bin/../../lib/gcc/pic32mx/8.3.1/../../../../pic32mx/lib/fpu64\libpic32.a(default-on-bootstrap.o)
 .debug_aranges
                0x0000000000000d48       0x20 e:/program files (x86)/microchip/xc32/v4.10/bin/bin/../../lib/gcc/pic32mx/8.3.1/../../../../pic32mx/lib/fpu64\libpic32.a(defaultinterrupt.o)
 .debug_aranges
                0x0000000000000d68       0x20 e:/program files (x86)/microchip/xc32/v4.10/bin/bin/../../lib/gcc/pic32mx/8.3.1/../../../../pic32mx/lib/fpu64\libm-musl.a(cosf.o)
 .debug_aranges
                0x0000000000000d88       0x20 e:/program files (x86)/microchip/xc32/v4.10/bin/bin/../../lib/gcc/pic32mx/8.3.1/../../../../pic32mx/lib/fpu64\libm-musl.a(expf.o)
 .debug_aranges
                0x0000000000000da8       0x20 e:/program files (x86)/microchip/xc32/v4.10/bin/bin/../../lib/gcc/pic32mx/8.3.1/../../../../pic32mx/lib/fpu64\libm-musl.a(log.o)
 .debug_aranges
                0x0000000000000dc8       0x20 e:/program files (x86)/microchip/xc32/v4.10/bin/bin/../../lib/gcc/pic32mx/8.3.1/../../../../pic32mx/lib/fpu64\libm-musl.a(scalbnf.o)
 .debug_aranges
                0x0000000000000de8       0x20 e:/program files (x86)/microchip/xc32/v4.10/bin/bin/../../lib/gcc/pic32mx/8.3.1/../../../../pic32mx/lib/fpu64\libm-musl.a(sinf.o)
 .debug_aranges
                0x0000000000000e08       0x20 e:/program files (x86)/microchip/xc32/v4.10/bin/bin/../../lib/gcc/pic32mx/8.3.1/../../../../pic32mx/lib/fpu64\libm-musl.a(sqrtf.o)
 .debug_aranges
                0x0000000000000e28       0x20 e:/program files (x86)/microchip/xc32/v4.10/bin/bin/../../lib/gcc/pic32mx/8.3.1/../../../../pic32mx/lib/fpu64\libm-musl.a(__cosdf.o)
 .debug_aranges
                0x0000000000000e48       0x20 e:/program files (x86)/microchip/xc32/v4.10/bin/bin/../../lib/gcc/pic32mx/8.3.1/../../../../pic32mx/lib/fpu64\libm-musl.a(__rem_pio2f.o)
 .debug_aranges
                0x0000000000000e68       0x20 e:/program files (x86)/microchip/xc32/v4.10/bin/bin/../../lib/gcc/pic32mx/8.3.1/../../../../pic32mx/lib/fpu64\libm-musl.a(__sindf.o)
 .debug_aranges
                0x0000000000000e88       0x20 e:/program files (x86)/microchip/xc32/v4.10/bin/bin/../../lib/gcc/pic32mx/8.3.1/../../../../pic32mx/lib/fpu64\libm-musl.a(__rem_pio2_large.o)
 .debug_aranges
                0x0000000000000ea8       0x20 e:/program files (x86)/microchip/xc32/v4.10/bin/bin/../../lib/gcc/pic32mx/8.3.1/../../../../pic32mx/lib/fpu64\libm-musl.a(floor.o)
 .debug_aranges
                0x0000000000000ec8       0x20 e:/program files (x86)/microchip/xc32/v4.10/bin/bin/../../lib/gcc/pic32mx/8.3.1/../../../../pic32mx/lib/fpu64\libm-musl.a(scalbn.o)

.debug_pubnames
 *.elf(.debug_pubnames)
 *(.debug_pubnames)

.debug_info     0x0000000000000000     0xc6a0
 *.elf(.debug_info .gnu.linkonce.wi.*)
 *(.debug_info .gnu.linkonce.wi.*)
 .debug_info    0x0000000000000000      0x424 build/pic32mk_mcm_curiosity_pro/production/_ext/423055883/Coordinate_transform.o
 .debug_info    0x0000000000000424      0xe5c build/pic32mk_mcm_curiosity_pro/production/_ext/423055883/FOC_Control.o
 .debug_info    0x0000000000001280      0x61d build/pic32mk_mcm_curiosity_pro/production/_ext/423055883/Motor.o
 .debug_info    0x000000000000189d      0x4d0 build/pic32mk_mcm_curiosity_pro/production/_ext/423055883/PI_Cale.o
 .debug_info    0x0000000000001d6d      0x4ac build/pic32mk_mcm_curiosity_pro/production/_ext/423055883/SVPWM.o
 .debug_info    0x0000000000002219      0x48f build/pic32mk_mcm_curiosity_pro/production/_ext/1913420649/Speed_Enconder_HALLCAL.o
 .debug_info    0x00000000000026a8     0x186d build/pic32mk_mcm_curiosity_pro/production/_ext/1224054987/plib_adchs.o
 .debug_info    0x0000000000003f15      0x158 build/pic32mk_mcm_curiosity_pro/production/_ext/1068833501/plib_cdac2.o
 .debug_info    0x000000000000406d      0x158 build/pic32mk_mcm_curiosity_pro/production/_ext/1068833501/plib_cdac3.o
 .debug_info    0x00000000000041c5      0x314 build/pic32mk_mcm_curiosity_pro/production/_ext/865762238/plib_clk.o
 .debug_info    0x00000000000044d9      0x5a4 build/pic32mk_mcm_curiosity_pro/production/_ext/1978316258/plib_eeprom.o
 .debug_info    0x0000000000004a7d      0x8a1 build/pic32mk_mcm_curiosity_pro/production/_ext/1068756373/plib_evic.o
 .debug_info    0x000000000000531e      0x5ca build/pic32mk_mcm_curiosity_pro/production/_ext/1068702545/plib_gpio.o
 .debug_info    0x00000000000058e8      0x817 build/pic32mk_mcm_curiosity_pro/production/_ext/1540640169/plib_i2c1_master.o
 .debug_info    0x00000000000060ff      0x263 build/pic32mk_mcm_curiosity_pro/production/_ext/1068655703/plib_icap4.o
 .debug_info    0x0000000000006362      0x263 build/pic32mk_mcm_curiosity_pro/production/_ext/1068655703/plib_icap5.o
 .debug_info    0x00000000000065c5      0x263 build/pic32mk_mcm_curiosity_pro/production/_ext/1068655703/plib_icap3.o
 .debug_info    0x0000000000006828      0xa5a build/pic32mk_mcm_curiosity_pro/production/_ext/1235120400/plib_mcpwm.o
 .debug_info    0x0000000000007282      0x189 build/pic32mk_mcm_curiosity_pro/production/_ext/1068476585/plib_ocmp2.o
 .debug_info    0x000000000000740b      0x189 build/pic32mk_mcm_curiosity_pro/production/_ext/1068476585/plib_ocmp3.o
 .debug_info    0x0000000000007594      0x189 build/pic32mk_mcm_curiosity_pro/production/_ext/1068476585/plib_ocmp4.o
 .debug_info    0x000000000000771d      0x2b9 build/pic32mk_mcm_curiosity_pro/production/_ext/865749003/plib_qei1.o
 .debug_info    0x00000000000079d6      0x55b build/pic32mk_mcm_curiosity_pro/production/_ext/865745863/plib_tmr2.o
 .debug_info    0x0000000000007f31      0x601 build/pic32mk_mcm_curiosity_pro/production/_ext/865745863/plib_tmr3.o
 .debug_info    0x0000000000008532      0xc32 build/pic32mk_mcm_curiosity_pro/production/_ext/1068299602/plib_uart6.o
 .debug_info    0x0000000000009164      0x1c9 build/pic32mk_mcm_curiosity_pro/production/_ext/227981847/plib_wdt.o
 .debug_info    0x000000000000932d      0x27d build/pic32mk_mcm_curiosity_pro/production/_ext/1163999990/xc32_monitor.o
 .debug_info    0x00000000000095aa      0x357 build/pic32mk_mcm_curiosity_pro/production/_ext/1433418692/initialization.o
 .debug_info    0x0000000000009901      0x2ee build/pic32mk_mcm_curiosity_pro/production/_ext/1433418692/interrupts.o
 .debug_info    0x0000000000009bef      0x2b1 build/pic32mk_mcm_curiosity_pro/production/_ext/1433418692/exceptions.o
 .debug_info    0x0000000000009ea0       0x4f build/pic32mk_mcm_curiosity_pro/production/_ext/1360937237/newfile.o
 .debug_info    0x0000000000009eef      0x57c build/pic32mk_mcm_curiosity_pro/production/_ext/813588705/vofa.o
 .debug_info    0x000000000000a46b      0x9d3 build/pic32mk_mcm_curiosity_pro/production/_ext/1360937237/main.o
 .debug_info    0x000000000000ae3e       0x3f e:/program files (x86)/microchip/xc32/v4.10/bin/bin/../../lib/gcc/pic32mx/8.3.1/../../../../pic32mx/lib/fpu64\libpic32.a(default-on-reset.o)
 .debug_info    0x000000000000ae7d       0x3f e:/program files (x86)/microchip/xc32/v4.10/bin/bin/../../lib/gcc/pic32mx/8.3.1/../../../../pic32mx/lib/fpu64\libpic32.a(default-on-bootstrap.o)
 .debug_info    0x000000000000aebc       0x40 e:/program files (x86)/microchip/xc32/v4.10/bin/bin/../../lib/gcc/pic32mx/8.3.1/../../../../pic32mx/lib/fpu64\libpic32.a(defaultinterrupt.o)
 .debug_info    0x000000000000aefc      0x23c e:/program files (x86)/microchip/xc32/v4.10/bin/bin/../../lib/gcc/pic32mx/8.3.1/../../../../pic32mx/lib/fpu64\libm-musl.a(cosf.o)
 .debug_info    0x000000000000b138      0x2cb e:/program files (x86)/microchip/xc32/v4.10/bin/bin/../../lib/gcc/pic32mx/8.3.1/../../../../pic32mx/lib/fpu64\libm-musl.a(expf.o)
 .debug_info    0x000000000000b403      0x28e e:/program files (x86)/microchip/xc32/v4.10/bin/bin/../../lib/gcc/pic32mx/8.3.1/../../../../pic32mx/lib/fpu64\libm-musl.a(log.o)
 .debug_info    0x000000000000b691      0x109 e:/program files (x86)/microchip/xc32/v4.10/bin/bin/../../lib/gcc/pic32mx/8.3.1/../../../../pic32mx/lib/fpu64\libm-musl.a(scalbnf.o)
 .debug_info    0x000000000000b79a      0x23c e:/program files (x86)/microchip/xc32/v4.10/bin/bin/../../lib/gcc/pic32mx/8.3.1/../../../../pic32mx/lib/fpu64\libm-musl.a(sinf.o)
 .debug_info    0x000000000000b9d6      0x1ea e:/program files (x86)/microchip/xc32/v4.10/bin/bin/../../lib/gcc/pic32mx/8.3.1/../../../../pic32mx/lib/fpu64\libm-musl.a(sqrtf.o)
 .debug_info    0x000000000000bbc0      0x133 e:/program files (x86)/microchip/xc32/v4.10/bin/bin/../../lib/gcc/pic32mx/8.3.1/../../../../pic32mx/lib/fpu64\libm-musl.a(__cosdf.o)
 .debug_info    0x000000000000bcf3      0x231 e:/program files (x86)/microchip/xc32/v4.10/bin/bin/../../lib/gcc/pic32mx/8.3.1/../../../../pic32mx/lib/fpu64\libm-musl.a(__rem_pio2f.o)
 .debug_info    0x000000000000bf24      0x140 e:/program files (x86)/microchip/xc32/v4.10/bin/bin/../../lib/gcc/pic32mx/8.3.1/../../../../pic32mx/lib/fpu64\libm-musl.a(__sindf.o)
 .debug_info    0x000000000000c064      0x3c6 e:/program files (x86)/microchip/xc32/v4.10/bin/bin/../../lib/gcc/pic32mx/8.3.1/../../../../pic32mx/lib/fpu64\libm-musl.a(__rem_pio2_large.o)
 .debug_info    0x000000000000c42a      0x16d e:/program files (x86)/microchip/xc32/v4.10/bin/bin/../../lib/gcc/pic32mx/8.3.1/../../../../pic32mx/lib/fpu64\libm-musl.a(floor.o)
 .debug_info    0x000000000000c597      0x109 e:/program files (x86)/microchip/xc32/v4.10/bin/bin/../../lib/gcc/pic32mx/8.3.1/../../../../pic32mx/lib/fpu64\libm-musl.a(scalbn.o)

.debug_abbrev   0x0000000000000000     0x3c0a
 *.elf(.debug_abbrev)
 *(.debug_abbrev)
 .debug_abbrev  0x0000000000000000      0x157 build/pic32mk_mcm_curiosity_pro/production/_ext/423055883/Coordinate_transform.o
 .debug_abbrev  0x0000000000000157      0x270 build/pic32mk_mcm_curiosity_pro/production/_ext/423055883/FOC_Control.o
 .debug_abbrev  0x00000000000003c7      0x24c build/pic32mk_mcm_curiosity_pro/production/_ext/423055883/Motor.o
 .debug_abbrev  0x0000000000000613      0x1a9 build/pic32mk_mcm_curiosity_pro/production/_ext/423055883/PI_Cale.o
 .debug_abbrev  0x00000000000007bc      0x177 build/pic32mk_mcm_curiosity_pro/production/_ext/423055883/SVPWM.o
 .debug_abbrev  0x0000000000000933      0x17b build/pic32mk_mcm_curiosity_pro/production/_ext/1913420649/Speed_Enconder_HALLCAL.o
 .debug_abbrev  0x0000000000000aae      0x2e9 build/pic32mk_mcm_curiosity_pro/production/_ext/1224054987/plib_adchs.o
 .debug_abbrev  0x0000000000000d97       0xdc build/pic32mk_mcm_curiosity_pro/production/_ext/1068833501/plib_cdac2.o
 .debug_abbrev  0x0000000000000e73       0xdc build/pic32mk_mcm_curiosity_pro/production/_ext/1068833501/plib_cdac3.o
 .debug_abbrev  0x0000000000000f4f       0xba build/pic32mk_mcm_curiosity_pro/production/_ext/865762238/plib_clk.o
 .debug_abbrev  0x0000000000001009      0x1ec build/pic32mk_mcm_curiosity_pro/production/_ext/1978316258/plib_eeprom.o
 .debug_abbrev  0x00000000000011f5       0xf0 build/pic32mk_mcm_curiosity_pro/production/_ext/1068756373/plib_evic.o
 .debug_abbrev  0x00000000000012e5      0x134 build/pic32mk_mcm_curiosity_pro/production/_ext/1068702545/plib_gpio.o
 .debug_abbrev  0x0000000000001419      0x249 build/pic32mk_mcm_curiosity_pro/production/_ext/1540640169/plib_i2c1_master.o
 .debug_abbrev  0x0000000000001662      0x178 build/pic32mk_mcm_curiosity_pro/production/_ext/1068655703/plib_icap4.o
 .debug_abbrev  0x00000000000017da      0x178 build/pic32mk_mcm_curiosity_pro/production/_ext/1068655703/plib_icap5.o
 .debug_abbrev  0x0000000000001952      0x178 build/pic32mk_mcm_curiosity_pro/production/_ext/1068655703/plib_icap3.o
 .debug_abbrev  0x0000000000001aca      0x1e4 build/pic32mk_mcm_curiosity_pro/production/_ext/1235120400/plib_mcpwm.o
 .debug_abbrev  0x0000000000001cae       0xb8 build/pic32mk_mcm_curiosity_pro/production/_ext/1068476585/plib_ocmp2.o
 .debug_abbrev  0x0000000000001d66       0xb8 build/pic32mk_mcm_curiosity_pro/production/_ext/1068476585/plib_ocmp3.o
 .debug_abbrev  0x0000000000001e1e       0xb8 build/pic32mk_mcm_curiosity_pro/production/_ext/1068476585/plib_ocmp4.o
 .debug_abbrev  0x0000000000001ed6      0x10b build/pic32mk_mcm_curiosity_pro/production/_ext/865749003/plib_qei1.o
 .debug_abbrev  0x0000000000001fe1      0x1a9 build/pic32mk_mcm_curiosity_pro/production/_ext/865745863/plib_tmr2.o
 .debug_abbrev  0x000000000000218a      0x1a9 build/pic32mk_mcm_curiosity_pro/production/_ext/865745863/plib_tmr3.o
 .debug_abbrev  0x0000000000002333      0x2d8 build/pic32mk_mcm_curiosity_pro/production/_ext/1068299602/plib_uart6.o
 .debug_abbrev  0x000000000000260b       0xf8 build/pic32mk_mcm_curiosity_pro/production/_ext/227981847/plib_wdt.o
 .debug_abbrev  0x0000000000002703      0x130 build/pic32mk_mcm_curiosity_pro/production/_ext/1163999990/xc32_monitor.o
 .debug_abbrev  0x0000000000002833      0x13a build/pic32mk_mcm_curiosity_pro/production/_ext/1433418692/initialization.o
 .debug_abbrev  0x000000000000296d       0xee build/pic32mk_mcm_curiosity_pro/production/_ext/1433418692/interrupts.o
 .debug_abbrev  0x0000000000002a5b      0x11e build/pic32mk_mcm_curiosity_pro/production/_ext/1433418692/exceptions.o
 .debug_abbrev  0x0000000000002b79       0x26 build/pic32mk_mcm_curiosity_pro/production/_ext/1360937237/newfile.o
 .debug_abbrev  0x0000000000002b9f      0x193 build/pic32mk_mcm_curiosity_pro/production/_ext/813588705/vofa.o
 .debug_abbrev  0x0000000000002d32      0x23b build/pic32mk_mcm_curiosity_pro/production/_ext/1360937237/main.o
 .debug_abbrev  0x0000000000002f6d       0x2e e:/program files (x86)/microchip/xc32/v4.10/bin/bin/../../lib/gcc/pic32mx/8.3.1/../../../../pic32mx/lib/fpu64\libpic32.a(default-on-reset.o)
 .debug_abbrev  0x0000000000002f9b       0x2e e:/program files (x86)/microchip/xc32/v4.10/bin/bin/../../lib/gcc/pic32mx/8.3.1/../../../../pic32mx/lib/fpu64\libpic32.a(default-on-bootstrap.o)
 .debug_abbrev  0x0000000000002fc9       0x31 e:/program files (x86)/microchip/xc32/v4.10/bin/bin/../../lib/gcc/pic32mx/8.3.1/../../../../pic32mx/lib/fpu64\libpic32.a(defaultinterrupt.o)
 .debug_abbrev  0x0000000000002ffa      0x147 e:/program files (x86)/microchip/xc32/v4.10/bin/bin/../../lib/gcc/pic32mx/8.3.1/../../../../pic32mx/lib/fpu64\libm-musl.a(cosf.o)
 .debug_abbrev  0x0000000000003141      0x183 e:/program files (x86)/microchip/xc32/v4.10/bin/bin/../../lib/gcc/pic32mx/8.3.1/../../../../pic32mx/lib/fpu64\libm-musl.a(expf.o)
 .debug_abbrev  0x00000000000032c4       0xfc e:/program files (x86)/microchip/xc32/v4.10/bin/bin/../../lib/gcc/pic32mx/8.3.1/../../../../pic32mx/lib/fpu64\libm-musl.a(log.o)
 .debug_abbrev  0x00000000000033c0       0xac e:/program files (x86)/microchip/xc32/v4.10/bin/bin/../../lib/gcc/pic32mx/8.3.1/../../../../pic32mx/lib/fpu64\libm-musl.a(scalbnf.o)
 .debug_abbrev  0x000000000000346c      0x147 e:/program files (x86)/microchip/xc32/v4.10/bin/bin/../../lib/gcc/pic32mx/8.3.1/../../../../pic32mx/lib/fpu64\libm-musl.a(sinf.o)
 .debug_abbrev  0x00000000000035b3       0xf5 e:/program files (x86)/microchip/xc32/v4.10/bin/bin/../../lib/gcc/pic32mx/8.3.1/../../../../pic32mx/lib/fpu64\libm-musl.a(sqrtf.o)
 .debug_abbrev  0x00000000000036a8       0x97 e:/program files (x86)/microchip/xc32/v4.10/bin/bin/../../lib/gcc/pic32mx/8.3.1/../../../../pic32mx/lib/fpu64\libm-musl.a(__cosdf.o)
 .debug_abbrev  0x000000000000373f      0x131 e:/program files (x86)/microchip/xc32/v4.10/bin/bin/../../lib/gcc/pic32mx/8.3.1/../../../../pic32mx/lib/fpu64\libm-musl.a(__rem_pio2f.o)
 .debug_abbrev  0x0000000000003870       0x94 e:/program files (x86)/microchip/xc32/v4.10/bin/bin/../../lib/gcc/pic32mx/8.3.1/../../../../pic32mx/lib/fpu64\libm-musl.a(__sindf.o)
 .debug_abbrev  0x0000000000003904      0x159 e:/program files (x86)/microchip/xc32/v4.10/bin/bin/../../lib/gcc/pic32mx/8.3.1/../../../../pic32mx/lib/fpu64\libm-musl.a(__rem_pio2_large.o)
 .debug_abbrev  0x0000000000003a5d      0x101 e:/program files (x86)/microchip/xc32/v4.10/bin/bin/../../lib/gcc/pic32mx/8.3.1/../../../../pic32mx/lib/fpu64\libm-musl.a(floor.o)
 .debug_abbrev  0x0000000000003b5e       0xac e:/program files (x86)/microchip/xc32/v4.10/bin/bin/../../lib/gcc/pic32mx/8.3.1/../../../../pic32mx/lib/fpu64\libm-musl.a(scalbn.o)

.debug_line     0x0000000000000000     0x9b0f
 *.elf(.debug_line)
 *(.debug_line)
 .debug_line    0x0000000000000000      0x3c9 build/pic32mk_mcm_curiosity_pro/production/_ext/423055883/Coordinate_transform.o
 .debug_line    0x00000000000003c9      0x91c build/pic32mk_mcm_curiosity_pro/production/_ext/423055883/FOC_Control.o
 .debug_line    0x0000000000000ce5      0x4d4 build/pic32mk_mcm_curiosity_pro/production/_ext/423055883/Motor.o
 .debug_line    0x00000000000011b9      0x384 build/pic32mk_mcm_curiosity_pro/production/_ext/423055883/PI_Cale.o
 .debug_line    0x000000000000153d      0x45d build/pic32mk_mcm_curiosity_pro/production/_ext/423055883/SVPWM.o
 .debug_line    0x000000000000199a      0x41c build/pic32mk_mcm_curiosity_pro/production/_ext/1913420649/Speed_Enconder_HALLCAL.o
 .debug_line    0x0000000000001db6      0x977 build/pic32mk_mcm_curiosity_pro/production/_ext/1224054987/plib_adchs.o
 .debug_line    0x000000000000272d      0x198 build/pic32mk_mcm_curiosity_pro/production/_ext/1068833501/plib_cdac2.o
 .debug_line    0x00000000000028c5      0x198 build/pic32mk_mcm_curiosity_pro/production/_ext/1068833501/plib_cdac3.o
 .debug_line    0x0000000000002a5d      0x190 build/pic32mk_mcm_curiosity_pro/production/_ext/865762238/plib_clk.o
 .debug_line    0x0000000000002bed      0x3e2 build/pic32mk_mcm_curiosity_pro/production/_ext/1978316258/plib_eeprom.o
 .debug_line    0x0000000000002fcf      0x2ec build/pic32mk_mcm_curiosity_pro/production/_ext/1068756373/plib_evic.o
 .debug_line    0x00000000000032bb      0x2d8 build/pic32mk_mcm_curiosity_pro/production/_ext/1068702545/plib_gpio.o
 .debug_line    0x0000000000003593      0x75c build/pic32mk_mcm_curiosity_pro/production/_ext/1540640169/plib_i2c1_master.o
 .debug_line    0x0000000000003cef      0x245 build/pic32mk_mcm_curiosity_pro/production/_ext/1068655703/plib_icap4.o
 .debug_line    0x0000000000003f34      0x245 build/pic32mk_mcm_curiosity_pro/production/_ext/1068655703/plib_icap5.o
 .debug_line    0x0000000000004179      0x245 build/pic32mk_mcm_curiosity_pro/production/_ext/1068655703/plib_icap3.o
 .debug_line    0x00000000000043be      0x480 build/pic32mk_mcm_curiosity_pro/production/_ext/1235120400/plib_mcpwm.o
 .debug_line    0x000000000000483e      0x1fd build/pic32mk_mcm_curiosity_pro/production/_ext/1068476585/plib_ocmp2.o
 .debug_line    0x0000000000004a3b      0x1fd build/pic32mk_mcm_curiosity_pro/production/_ext/1068476585/plib_ocmp3.o
 .debug_line    0x0000000000004c38      0x1fd build/pic32mk_mcm_curiosity_pro/production/_ext/1068476585/plib_ocmp4.o
 .debug_line    0x0000000000004e35      0x230 build/pic32mk_mcm_curiosity_pro/production/_ext/865749003/plib_qei1.o
 .debug_line    0x0000000000005065      0x2ad build/pic32mk_mcm_curiosity_pro/production/_ext/865745863/plib_tmr2.o
 .debug_line    0x0000000000005312      0x326 build/pic32mk_mcm_curiosity_pro/production/_ext/865745863/plib_tmr3.o
 .debug_line    0x0000000000005638      0x881 build/pic32mk_mcm_curiosity_pro/production/_ext/1068299602/plib_uart6.o
 .debug_line    0x0000000000005eb9      0x1df build/pic32mk_mcm_curiosity_pro/production/_ext/227981847/plib_wdt.o
 .debug_line    0x0000000000006098      0x306 build/pic32mk_mcm_curiosity_pro/production/_ext/1163999990/xc32_monitor.o
 .debug_line    0x000000000000639e      0x365 build/pic32mk_mcm_curiosity_pro/production/_ext/1433418692/initialization.o
 .debug_line    0x0000000000006703      0x412 build/pic32mk_mcm_curiosity_pro/production/_ext/1433418692/interrupts.o
 .debug_line    0x0000000000006b15      0x2f8 build/pic32mk_mcm_curiosity_pro/production/_ext/1433418692/exceptions.o
 .debug_line    0x0000000000006e0d       0x1d build/pic32mk_mcm_curiosity_pro/production/_ext/1360937237/newfile.o
 .debug_line    0x0000000000006e2a      0x5b1 build/pic32mk_mcm_curiosity_pro/production/_ext/813588705/vofa.o
 .debug_line    0x00000000000073db      0x6ae build/pic32mk_mcm_curiosity_pro/production/_ext/1360937237/main.o
 .debug_line    0x0000000000007a89       0xa8 e:/program files (x86)/microchip/xc32/v4.10/bin/bin/../../lib/gcc/pic32mx/8.3.1/../../../../pic32mx/lib/fpu64\libpic32.a(default-on-reset.o)
 .debug_line    0x0000000000007b31       0xac e:/program files (x86)/microchip/xc32/v4.10/bin/bin/../../lib/gcc/pic32mx/8.3.1/../../../../pic32mx/lib/fpu64\libpic32.a(default-on-bootstrap.o)
 .debug_line    0x0000000000007bdd       0xcb e:/program files (x86)/microchip/xc32/v4.10/bin/bin/../../lib/gcc/pic32mx/8.3.1/../../../../pic32mx/lib/fpu64\libpic32.a(defaultinterrupt.o)
 .debug_line    0x0000000000007ca8      0x2b0 e:/program files (x86)/microchip/xc32/v4.10/bin/bin/../../lib/gcc/pic32mx/8.3.1/../../../../pic32mx/lib/fpu64\libm-musl.a(cosf.o)
 .debug_line    0x0000000000007f58      0x2ec e:/program files (x86)/microchip/xc32/v4.10/bin/bin/../../lib/gcc/pic32mx/8.3.1/../../../../pic32mx/lib/fpu64\libm-musl.a(expf.o)
 .debug_line    0x0000000000008244      0x2ec e:/program files (x86)/microchip/xc32/v4.10/bin/bin/../../lib/gcc/pic32mx/8.3.1/../../../../pic32mx/lib/fpu64\libm-musl.a(log.o)
 .debug_line    0x0000000000008530      0x18c e:/program files (x86)/microchip/xc32/v4.10/bin/bin/../../lib/gcc/pic32mx/8.3.1/../../../../pic32mx/lib/fpu64\libm-musl.a(scalbnf.o)
 .debug_line    0x00000000000086bc      0x2a7 e:/program files (x86)/microchip/xc32/v4.10/bin/bin/../../lib/gcc/pic32mx/8.3.1/../../../../pic32mx/lib/fpu64\libm-musl.a(sinf.o)
 .debug_line    0x0000000000008963      0x2e8 e:/program files (x86)/microchip/xc32/v4.10/bin/bin/../../lib/gcc/pic32mx/8.3.1/../../../../pic32mx/lib/fpu64\libm-musl.a(sqrtf.o)
 .debug_line    0x0000000000008c4b      0x150 e:/program files (x86)/microchip/xc32/v4.10/bin/bin/../../lib/gcc/pic32mx/8.3.1/../../../../pic32mx/lib/fpu64\libm-musl.a(__cosdf.o)
 .debug_line    0x0000000000008d9b      0x26a e:/program files (x86)/microchip/xc32/v4.10/bin/bin/../../lib/gcc/pic32mx/8.3.1/../../../../pic32mx/lib/fpu64\libm-musl.a(__rem_pio2f.o)
 .debug_line    0x0000000000009005      0x151 e:/program files (x86)/microchip/xc32/v4.10/bin/bin/../../lib/gcc/pic32mx/8.3.1/../../../../pic32mx/lib/fpu64\libm-musl.a(__sindf.o)
 .debug_line    0x0000000000009156      0x697 e:/program files (x86)/microchip/xc32/v4.10/bin/bin/../../lib/gcc/pic32mx/8.3.1/../../../../pic32mx/lib/fpu64\libm-musl.a(__rem_pio2_large.o)
 .debug_line    0x00000000000097ed      0x191 e:/program files (x86)/microchip/xc32/v4.10/bin/bin/../../lib/gcc/pic32mx/8.3.1/../../../../pic32mx/lib/fpu64\libm-musl.a(floor.o)
 .debug_line    0x000000000000997e      0x191 e:/program files (x86)/microchip/xc32/v4.10/bin/bin/../../lib/gcc/pic32mx/8.3.1/../../../../pic32mx/lib/fpu64\libm-musl.a(scalbn.o)
 .debug_line    0x0000000000009b0f        0x0 e:/program files (x86)/microchip/xc32/v4.10/bin/bin/../../lib/gcc/pic32mx/8.3.1/../../../../pic32mx/lib/fpu64\libpic32.a(errno.o)

.debug_frame    0x0000000000000000     0x370c
 *.elf(.debug_frame)
 *(.debug_frame)
 .debug_frame   0x0000000000000000      0x138 build/pic32mk_mcm_curiosity_pro/production/_ext/423055883/Coordinate_transform.o
 .debug_frame   0x0000000000000138      0x314 build/pic32mk_mcm_curiosity_pro/production/_ext/423055883/FOC_Control.o
 .debug_frame   0x000000000000044c      0x1e4 build/pic32mk_mcm_curiosity_pro/production/_ext/423055883/Motor.o
 .debug_frame   0x0000000000000630      0x10c build/pic32mk_mcm_curiosity_pro/production/_ext/423055883/PI_Cale.o
 .debug_frame   0x000000000000073c       0xc8 build/pic32mk_mcm_curiosity_pro/production/_ext/423055883/SVPWM.o
 .debug_frame   0x0000000000000804       0xec build/pic32mk_mcm_curiosity_pro/production/_ext/1913420649/Speed_Enconder_HALLCAL.o
 .debug_frame   0x00000000000008f0      0x430 build/pic32mk_mcm_curiosity_pro/production/_ext/1224054987/plib_adchs.o
 .debug_frame   0x0000000000000d20       0x58 build/pic32mk_mcm_curiosity_pro/production/_ext/1068833501/plib_cdac2.o
 .debug_frame   0x0000000000000d78       0x58 build/pic32mk_mcm_curiosity_pro/production/_ext/1068833501/plib_cdac3.o
 .debug_frame   0x0000000000000dd0       0x34 build/pic32mk_mcm_curiosity_pro/production/_ext/865762238/plib_clk.o
 .debug_frame   0x0000000000000e04      0x1c4 build/pic32mk_mcm_curiosity_pro/production/_ext/1978316258/plib_eeprom.o
 .debug_frame   0x0000000000000fc8      0x178 build/pic32mk_mcm_curiosity_pro/production/_ext/1068756373/plib_evic.o
 .debug_frame   0x0000000000001140      0x154 build/pic32mk_mcm_curiosity_pro/production/_ext/1068702545/plib_gpio.o
 .debug_frame   0x0000000000001294      0x278 build/pic32mk_mcm_curiosity_pro/production/_ext/1540640169/plib_i2c1_master.o
 .debug_frame   0x000000000000150c      0x10c build/pic32mk_mcm_curiosity_pro/production/_ext/1068655703/plib_icap4.o
 .debug_frame   0x0000000000001618      0x10c build/pic32mk_mcm_curiosity_pro/production/_ext/1068655703/plib_icap5.o
 .debug_frame   0x0000000000001724      0x10c build/pic32mk_mcm_curiosity_pro/production/_ext/1068655703/plib_icap3.o
 .debug_frame   0x0000000000001830      0x2c0 build/pic32mk_mcm_curiosity_pro/production/_ext/1235120400/plib_mcpwm.o
 .debug_frame   0x0000000000001af0       0xe8 build/pic32mk_mcm_curiosity_pro/production/_ext/1068476585/plib_ocmp2.o
 .debug_frame   0x0000000000001bd8       0xe8 build/pic32mk_mcm_curiosity_pro/production/_ext/1068476585/plib_ocmp3.o
 .debug_frame   0x0000000000001cc0       0xe8 build/pic32mk_mcm_curiosity_pro/production/_ext/1068476585/plib_ocmp4.o
 .debug_frame   0x0000000000001da8      0x10c build/pic32mk_mcm_curiosity_pro/production/_ext/865749003/plib_qei1.o
 .debug_frame   0x0000000000001eb4      0x19c build/pic32mk_mcm_curiosity_pro/production/_ext/865745863/plib_tmr2.o
 .debug_frame   0x0000000000002050      0x22c build/pic32mk_mcm_curiosity_pro/production/_ext/865745863/plib_tmr3.o
 .debug_frame   0x000000000000227c      0x488 build/pic32mk_mcm_curiosity_pro/production/_ext/1068299602/plib_uart6.o
 .debug_frame   0x0000000000002704       0xc4 build/pic32mk_mcm_curiosity_pro/production/_ext/227981847/plib_wdt.o
 .debug_frame   0x00000000000027c8       0xe8 build/pic32mk_mcm_curiosity_pro/production/_ext/1163999990/xc32_monitor.o
 .debug_frame   0x00000000000028b0       0xc4 build/pic32mk_mcm_curiosity_pro/production/_ext/1433418692/initialization.o
 .debug_frame   0x0000000000002974      0x7f0 build/pic32mk_mcm_curiosity_pro/production/_ext/1433418692/interrupts.o
 .debug_frame   0x0000000000003164       0xe0 build/pic32mk_mcm_curiosity_pro/production/_ext/1433418692/exceptions.o
 .debug_frame   0x0000000000003244      0x118 build/pic32mk_mcm_curiosity_pro/production/_ext/813588705/vofa.o
 .debug_frame   0x000000000000335c      0x154 build/pic32mk_mcm_curiosity_pro/production/_ext/1360937237/main.o
 .debug_frame   0x00000000000034b0       0x20 e:/program files (x86)/microchip/xc32/v4.10/bin/bin/../../lib/gcc/pic32mx/8.3.1/../../../../pic32mx/lib/fpu64\libpic32.a(default-on-reset.o)
 .debug_frame   0x00000000000034d0       0x20 e:/program files (x86)/microchip/xc32/v4.10/bin/bin/../../lib/gcc/pic32mx/8.3.1/../../../../pic32mx/lib/fpu64\libpic32.a(default-on-bootstrap.o)
 .debug_frame   0x00000000000034f0       0x20 e:/program files (x86)/microchip/xc32/v4.10/bin/bin/../../lib/gcc/pic32mx/8.3.1/../../../../pic32mx/lib/fpu64\libpic32.a(defaultinterrupt.o)
 .debug_frame   0x0000000000003510       0x2c e:/program files (x86)/microchip/xc32/v4.10/bin/bin/../../lib/gcc/pic32mx/8.3.1/../../../../pic32mx/lib/fpu64\libm-musl.a(cosf.o)
 .debug_frame   0x000000000000353c       0x2c e:/program files (x86)/microchip/xc32/v4.10/bin/bin/../../lib/gcc/pic32mx/8.3.1/../../../../pic32mx/lib/fpu64\libm-musl.a(expf.o)
 .debug_frame   0x0000000000003568       0x20 e:/program files (x86)/microchip/xc32/v4.10/bin/bin/../../lib/gcc/pic32mx/8.3.1/../../../../pic32mx/lib/fpu64\libm-musl.a(log.o)
 .debug_frame   0x0000000000003588       0x20 e:/program files (x86)/microchip/xc32/v4.10/bin/bin/../../lib/gcc/pic32mx/8.3.1/../../../../pic32mx/lib/fpu64\libm-musl.a(scalbnf.o)
 .debug_frame   0x00000000000035a8       0x2c e:/program files (x86)/microchip/xc32/v4.10/bin/bin/../../lib/gcc/pic32mx/8.3.1/../../../../pic32mx/lib/fpu64\libm-musl.a(sinf.o)
 .debug_frame   0x00000000000035d4       0x20 e:/program files (x86)/microchip/xc32/v4.10/bin/bin/../../lib/gcc/pic32mx/8.3.1/../../../../pic32mx/lib/fpu64\libm-musl.a(sqrtf.o)
 .debug_frame   0x00000000000035f4       0x20 e:/program files (x86)/microchip/xc32/v4.10/bin/bin/../../lib/gcc/pic32mx/8.3.1/../../../../pic32mx/lib/fpu64\libm-musl.a(__cosdf.o)
 .debug_frame   0x0000000000003614       0x34 e:/program files (x86)/microchip/xc32/v4.10/bin/bin/../../lib/gcc/pic32mx/8.3.1/../../../../pic32mx/lib/fpu64\libm-musl.a(__rem_pio2f.o)
 .debug_frame   0x0000000000003648       0x20 e:/program files (x86)/microchip/xc32/v4.10/bin/bin/../../lib/gcc/pic32mx/8.3.1/../../../../pic32mx/lib/fpu64\libm-musl.a(__sindf.o)
 .debug_frame   0x0000000000003668       0x58 e:/program files (x86)/microchip/xc32/v4.10/bin/bin/../../lib/gcc/pic32mx/8.3.1/../../../../pic32mx/lib/fpu64\libm-musl.a(__rem_pio2_large.o)
 .debug_frame   0x00000000000036c0       0x2c e:/program files (x86)/microchip/xc32/v4.10/bin/bin/../../lib/gcc/pic32mx/8.3.1/../../../../pic32mx/lib/fpu64\libm-musl.a(floor.o)
 .debug_frame   0x00000000000036ec       0x20 e:/program files (x86)/microchip/xc32/v4.10/bin/bin/../../lib/gcc/pic32mx/8.3.1/../../../../pic32mx/lib/fpu64\libm-musl.a(scalbn.o)

.debug_str      0x0000000000000000    0x10701
 *.elf(.debug_str)
 *(.debug_str)
 .debug_str     0x0000000000000000      0x442 build/pic32mk_mcm_curiosity_pro/production/_ext/423055883/Coordinate_transform.o
 .debug_str     0x0000000000000442      0x95a build/pic32mk_mcm_curiosity_pro/production/_ext/423055883/FOC_Control.o
 .debug_str     0x0000000000000d9c      0x4d6 build/pic32mk_mcm_curiosity_pro/production/_ext/423055883/Motor.o
 .debug_str     0x0000000000001272      0x4a6 build/pic32mk_mcm_curiosity_pro/production/_ext/423055883/PI_Cale.o
 .debug_str     0x0000000000001718      0x56e build/pic32mk_mcm_curiosity_pro/production/_ext/423055883/SVPWM.o
 .debug_str     0x0000000000001c86      0x4a0 build/pic32mk_mcm_curiosity_pro/production/_ext/1913420649/Speed_Enconder_HALLCAL.o
 .debug_str     0x0000000000002126     0x1074 build/pic32mk_mcm_curiosity_pro/production/_ext/1224054987/plib_adchs.o
 .debug_str     0x000000000000319a      0x397 build/pic32mk_mcm_curiosity_pro/production/_ext/1068833501/plib_cdac2.o
 .debug_str     0x0000000000003531      0x397 build/pic32mk_mcm_curiosity_pro/production/_ext/1068833501/plib_cdac3.o
 .debug_str     0x00000000000038c8      0x447 build/pic32mk_mcm_curiosity_pro/production/_ext/865762238/plib_clk.o
 .debug_str     0x0000000000003d0f      0x699 build/pic32mk_mcm_curiosity_pro/production/_ext/1978316258/plib_eeprom.o
 .debug_str     0x00000000000043a8     0x189f build/pic32mk_mcm_curiosity_pro/production/_ext/1068756373/plib_evic.o
 .debug_str     0x0000000000005c47      0x5b8 build/pic32mk_mcm_curiosity_pro/production/_ext/1068702545/plib_gpio.o
 .debug_str     0x00000000000061ff      0x986 build/pic32mk_mcm_curiosity_pro/production/_ext/1540640169/plib_i2c1_master.o
 .debug_str     0x0000000000006b85      0x474 build/pic32mk_mcm_curiosity_pro/production/_ext/1068655703/plib_icap4.o
 .debug_str     0x0000000000006ff9      0x474 build/pic32mk_mcm_curiosity_pro/production/_ext/1068655703/plib_icap5.o
 .debug_str     0x000000000000746d      0x474 build/pic32mk_mcm_curiosity_pro/production/_ext/1068655703/plib_icap3.o
 .debug_str     0x00000000000078e1      0x8bc build/pic32mk_mcm_curiosity_pro/production/_ext/1235120400/plib_mcpwm.o
 .debug_str     0x000000000000819d      0x3e5 build/pic32mk_mcm_curiosity_pro/production/_ext/1068476585/plib_ocmp2.o
 .debug_str     0x0000000000008582      0x3e5 build/pic32mk_mcm_curiosity_pro/production/_ext/1068476585/plib_ocmp3.o
 .debug_str     0x0000000000008967      0x3e5 build/pic32mk_mcm_curiosity_pro/production/_ext/1068476585/plib_ocmp4.o
 .debug_str     0x0000000000008d4c      0x46d build/pic32mk_mcm_curiosity_pro/production/_ext/865749003/plib_qei1.o
 .debug_str     0x00000000000091b9      0x54b build/pic32mk_mcm_curiosity_pro/production/_ext/865745863/plib_tmr2.o
 .debug_str     0x0000000000009704      0x583 build/pic32mk_mcm_curiosity_pro/production/_ext/865745863/plib_tmr3.o
 .debug_str     0x0000000000009c87      0xb2e build/pic32mk_mcm_curiosity_pro/production/_ext/1068299602/plib_uart6.o
 .debug_str     0x000000000000a7b5      0x3f8 build/pic32mk_mcm_curiosity_pro/production/_ext/227981847/plib_wdt.o
 .debug_str     0x000000000000abad      0x3f1 build/pic32mk_mcm_curiosity_pro/production/_ext/1163999990/xc32_monitor.o
 .debug_str     0x000000000000af9e      0x46a build/pic32mk_mcm_curiosity_pro/production/_ext/1433418692/initialization.o
 .debug_str     0x000000000000b408      0x4a1 build/pic32mk_mcm_curiosity_pro/production/_ext/1433418692/interrupts.o
 .debug_str     0x000000000000b8a9      0x4aa build/pic32mk_mcm_curiosity_pro/production/_ext/1433418692/exceptions.o
 .debug_str     0x000000000000bd53      0x294 build/pic32mk_mcm_curiosity_pro/production/_ext/1360937237/newfile.o
 .debug_str     0x000000000000bfe7      0x521 build/pic32mk_mcm_curiosity_pro/production/_ext/813588705/vofa.o
 .debug_str     0x000000000000c508      0x92a build/pic32mk_mcm_curiosity_pro/production/_ext/1360937237/main.o
 .debug_str     0x000000000000ce32      0x360 e:/program files (x86)/microchip/xc32/v4.10/bin/bin/../../lib/gcc/pic32mx/8.3.1/../../../../pic32mx/lib/fpu64\libpic32.a(default-on-reset.o)
 .debug_str     0x000000000000d192      0x368 e:/program files (x86)/microchip/xc32/v4.10/bin/bin/../../lib/gcc/pic32mx/8.3.1/../../../../pic32mx/lib/fpu64\libpic32.a(default-on-bootstrap.o)
 .debug_str     0x000000000000d4fa      0x37a e:/program files (x86)/microchip/xc32/v4.10/bin/bin/../../lib/gcc/pic32mx/8.3.1/../../../../pic32mx/lib/fpu64\libpic32.a(defaultinterrupt.o)
 .debug_str     0x000000000000d874      0x3c1 e:/program files (x86)/microchip/xc32/v4.10/bin/bin/../../lib/gcc/pic32mx/8.3.1/../../../../pic32mx/lib/fpu64\libm-musl.a(cosf.o)
 .debug_str     0x000000000000dc35      0x3af e:/program files (x86)/microchip/xc32/v4.10/bin/bin/../../lib/gcc/pic32mx/8.3.1/../../../../pic32mx/lib/fpu64\libm-musl.a(expf.o)
 .debug_str     0x000000000000dfe4      0x395 e:/program files (x86)/microchip/xc32/v4.10/bin/bin/../../lib/gcc/pic32mx/8.3.1/../../../../pic32mx/lib/fpu64\libm-musl.a(log.o)
 .debug_str     0x000000000000e379      0x37e e:/program files (x86)/microchip/xc32/v4.10/bin/bin/../../lib/gcc/pic32mx/8.3.1/../../../../pic32mx/lib/fpu64\libm-musl.a(scalbnf.o)
 .debug_str     0x000000000000e6f7      0x3c1 e:/program files (x86)/microchip/xc32/v4.10/bin/bin/../../lib/gcc/pic32mx/8.3.1/../../../../pic32mx/lib/fpu64\libm-musl.a(sinf.o)
 .debug_str     0x000000000000eab8      0x38a e:/program files (x86)/microchip/xc32/v4.10/bin/bin/../../lib/gcc/pic32mx/8.3.1/../../../../pic32mx/lib/fpu64\libm-musl.a(sqrtf.o)
 .debug_str     0x000000000000ee42      0x376 e:/program files (x86)/microchip/xc32/v4.10/bin/bin/../../lib/gcc/pic32mx/8.3.1/../../../../pic32mx/lib/fpu64\libm-musl.a(__cosdf.o)
 .debug_str     0x000000000000f1b8      0x3c2 e:/program files (x86)/microchip/xc32/v4.10/bin/bin/../../lib/gcc/pic32mx/8.3.1/../../../../pic32mx/lib/fpu64\libm-musl.a(__rem_pio2f.o)
 .debug_str     0x000000000000f57a      0x376 e:/program files (x86)/microchip/xc32/v4.10/bin/bin/../../lib/gcc/pic32mx/8.3.1/../../../../pic32mx/lib/fpu64\libm-musl.a(__sindf.o)
 .debug_str     0x000000000000f8f0      0x3bc e:/program files (x86)/microchip/xc32/v4.10/bin/bin/../../lib/gcc/pic32mx/8.3.1/../../../../pic32mx/lib/fpu64\libm-musl.a(__rem_pio2_large.o)
 .debug_str     0x000000000000fcac      0x38d e:/program files (x86)/microchip/xc32/v4.10/bin/bin/../../lib/gcc/pic32mx/8.3.1/../../../../pic32mx/lib/fpu64\libm-musl.a(floor.o)
 .debug_str     0x0000000000010039      0x37d e:/program files (x86)/microchip/xc32/v4.10/bin/bin/../../lib/gcc/pic32mx/8.3.1/../../../../pic32mx/lib/fpu64\libm-musl.a(scalbn.o)
 .debug_str     0x00000000000103b6      0x34b e:/program files (x86)/microchip/xc32/v4.10/bin/bin/../../lib/gcc/pic32mx/8.3.1/../../../../pic32mx/lib/fpu64\libpic32.a(errno.o)

.debug_loc      0x0000000000000000     0x20d3
 *.elf(.debug_loc)
 *(.debug_loc)
 .debug_loc     0x0000000000000000      0x24e e:/program files (x86)/microchip/xc32/v4.10/bin/bin/../../lib/gcc/pic32mx/8.3.1/../../../../pic32mx/lib/fpu64\libm-musl.a(cosf.o)
 .debug_loc     0x000000000000024e      0x24d e:/program files (x86)/microchip/xc32/v4.10/bin/bin/../../lib/gcc/pic32mx/8.3.1/../../../../pic32mx/lib/fpu64\libm-musl.a(expf.o)
 .debug_loc     0x000000000000049b      0x4a1 e:/program files (x86)/microchip/xc32/v4.10/bin/bin/../../lib/gcc/pic32mx/8.3.1/../../../../pic32mx/lib/fpu64\libm-musl.a(log.o)
 .debug_loc     0x000000000000093c      0x159 e:/program files (x86)/microchip/xc32/v4.10/bin/bin/../../lib/gcc/pic32mx/8.3.1/../../../../pic32mx/lib/fpu64\libm-musl.a(scalbnf.o)
 .debug_loc     0x0000000000000a95      0x2a6 e:/program files (x86)/microchip/xc32/v4.10/bin/bin/../../lib/gcc/pic32mx/8.3.1/../../../../pic32mx/lib/fpu64\libm-musl.a(sinf.o)
 .debug_loc     0x0000000000000d3b      0x269 e:/program files (x86)/microchip/xc32/v4.10/bin/bin/../../lib/gcc/pic32mx/8.3.1/../../../../pic32mx/lib/fpu64\libm-musl.a(sqrtf.o)
 .debug_loc     0x0000000000000fa4       0xda e:/program files (x86)/microchip/xc32/v4.10/bin/bin/../../lib/gcc/pic32mx/8.3.1/../../../../pic32mx/lib/fpu64\libm-musl.a(__cosdf.o)
 .debug_loc     0x000000000000107e      0x239 e:/program files (x86)/microchip/xc32/v4.10/bin/bin/../../lib/gcc/pic32mx/8.3.1/../../../../pic32mx/lib/fpu64\libm-musl.a(__rem_pio2f.o)
 .debug_loc     0x00000000000012b7       0xf0 e:/program files (x86)/microchip/xc32/v4.10/bin/bin/../../lib/gcc/pic32mx/8.3.1/../../../../pic32mx/lib/fpu64\libm-musl.a(__sindf.o)
 .debug_loc     0x00000000000013a7      0xb40 e:/program files (x86)/microchip/xc32/v4.10/bin/bin/../../lib/gcc/pic32mx/8.3.1/../../../../pic32mx/lib/fpu64\libm-musl.a(__rem_pio2_large.o)
 .debug_loc     0x0000000000001ee7       0x7e e:/program files (x86)/microchip/xc32/v4.10/bin/bin/../../lib/gcc/pic32mx/8.3.1/../../../../pic32mx/lib/fpu64\libm-musl.a(floor.o)
 .debug_loc     0x0000000000001f65      0x16e e:/program files (x86)/microchip/xc32/v4.10/bin/bin/../../lib/gcc/pic32mx/8.3.1/../../../../pic32mx/lib/fpu64\libm-musl.a(scalbn.o)

.debug_macinfo
 *.elf(.debug_macinfo)
 *(.debug_macinfo)

.debug_weaknames
 *.elf(.debug_weaknames)
 *(.debug_weaknames)

.debug_funcnames
 *.elf(.debug_funcnames)
 *(.debug_funcnames)

.debug_typenames
 *.elf(.debug_typenames)
 *(.debug_typenames)

.debug_varnames
 *.elf(.debug_varnames)
 *(.debug_varnames)

.debug_pubtypes
 *.elf(.debug_pubtypes)
 *(.debug_pubtypes)

.debug_ranges   0x0000000000000000      0xcc0
 *.elf(.debug_ranges)
 *(.debug_ranges)
 .debug_ranges  0x0000000000000000       0x48 build/pic32mk_mcm_curiosity_pro/production/_ext/423055883/Coordinate_transform.o
 .debug_ranges  0x0000000000000048       0xb0 build/pic32mk_mcm_curiosity_pro/production/_ext/423055883/FOC_Control.o
 .debug_ranges  0x00000000000000f8       0x70 build/pic32mk_mcm_curiosity_pro/production/_ext/423055883/Motor.o
 .debug_ranges  0x0000000000000168       0x40 build/pic32mk_mcm_curiosity_pro/production/_ext/423055883/PI_Cale.o
 .debug_ranges  0x00000000000001a8       0x30 build/pic32mk_mcm_curiosity_pro/production/_ext/423055883/SVPWM.o
 .debug_ranges  0x00000000000001d8       0x38 build/pic32mk_mcm_curiosity_pro/production/_ext/1913420649/Speed_Enconder_HALLCAL.o
 .debug_ranges  0x0000000000000210       0xf0 build/pic32mk_mcm_curiosity_pro/production/_ext/1224054987/plib_adchs.o
 .debug_ranges  0x0000000000000300       0x18 build/pic32mk_mcm_curiosity_pro/production/_ext/1068833501/plib_cdac2.o
 .debug_ranges  0x0000000000000318       0x18 build/pic32mk_mcm_curiosity_pro/production/_ext/1068833501/plib_cdac3.o
 .debug_ranges  0x0000000000000330       0x10 build/pic32mk_mcm_curiosity_pro/production/_ext/865762238/plib_clk.o
 .debug_ranges  0x0000000000000340       0x68 build/pic32mk_mcm_curiosity_pro/production/_ext/1978316258/plib_eeprom.o
 .debug_ranges  0x00000000000003a8       0x58 build/pic32mk_mcm_curiosity_pro/production/_ext/1068756373/plib_evic.o
 .debug_ranges  0x0000000000000400       0x50 build/pic32mk_mcm_curiosity_pro/production/_ext/1068702545/plib_gpio.o
 .debug_ranges  0x0000000000000450       0x90 build/pic32mk_mcm_curiosity_pro/production/_ext/1540640169/plib_i2c1_master.o
 .debug_ranges  0x00000000000004e0       0x40 build/pic32mk_mcm_curiosity_pro/production/_ext/1068655703/plib_icap4.o
 .debug_ranges  0x0000000000000520       0x40 build/pic32mk_mcm_curiosity_pro/production/_ext/1068655703/plib_icap5.o
 .debug_ranges  0x0000000000000560       0x40 build/pic32mk_mcm_curiosity_pro/production/_ext/1068655703/plib_icap3.o
 .debug_ranges  0x00000000000005a0       0xa0 build/pic32mk_mcm_curiosity_pro/production/_ext/1235120400/plib_mcpwm.o
 .debug_ranges  0x0000000000000640       0x38 build/pic32mk_mcm_curiosity_pro/production/_ext/1068476585/plib_ocmp2.o
 .debug_ranges  0x0000000000000678       0x38 build/pic32mk_mcm_curiosity_pro/production/_ext/1068476585/plib_ocmp3.o
 .debug_ranges  0x00000000000006b0       0x38 build/pic32mk_mcm_curiosity_pro/production/_ext/1068476585/plib_ocmp4.o
 .debug_ranges  0x00000000000006e8       0x40 build/pic32mk_mcm_curiosity_pro/production/_ext/865749003/plib_qei1.o
 .debug_ranges  0x0000000000000728       0x60 build/pic32mk_mcm_curiosity_pro/production/_ext/865745863/plib_tmr2.o
 .debug_ranges  0x0000000000000788       0x80 build/pic32mk_mcm_curiosity_pro/production/_ext/865745863/plib_tmr3.o
 .debug_ranges  0x0000000000000808      0x100 build/pic32mk_mcm_curiosity_pro/production/_ext/1068299602/plib_uart6.o
 .debug_ranges  0x0000000000000908       0x30 build/pic32mk_mcm_curiosity_pro/production/_ext/227981847/plib_wdt.o
 .debug_ranges  0x0000000000000938       0x38 build/pic32mk_mcm_curiosity_pro/production/_ext/1163999990/xc32_monitor.o
 .debug_ranges  0x0000000000000970       0x30 build/pic32mk_mcm_curiosity_pro/production/_ext/1433418692/initialization.o
 .debug_ranges  0x00000000000009a0       0x88 build/pic32mk_mcm_curiosity_pro/production/_ext/1433418692/interrupts.o
 .debug_ranges  0x0000000000000a28       0x38 build/pic32mk_mcm_curiosity_pro/production/_ext/1433418692/exceptions.o
 .debug_ranges  0x0000000000000a60       0x40 build/pic32mk_mcm_curiosity_pro/production/_ext/813588705/vofa.o
 .debug_ranges  0x0000000000000aa0       0x50 build/pic32mk_mcm_curiosity_pro/production/_ext/1360937237/main.o
 .debug_ranges  0x0000000000000af0       0x10 e:/program files (x86)/microchip/xc32/v4.10/bin/bin/../../lib/gcc/pic32mx/8.3.1/../../../../pic32mx/lib/fpu64\libpic32.a(default-on-reset.o)
 .debug_ranges  0x0000000000000b00       0x10 e:/program files (x86)/microchip/xc32/v4.10/bin/bin/../../lib/gcc/pic32mx/8.3.1/../../../../pic32mx/lib/fpu64\libpic32.a(default-on-bootstrap.o)
 .debug_ranges  0x0000000000000b10       0x10 e:/program files (x86)/microchip/xc32/v4.10/bin/bin/../../lib/gcc/pic32mx/8.3.1/../../../../pic32mx/lib/fpu64\libpic32.a(defaultinterrupt.o)
 .debug_ranges  0x0000000000000b20       0x40 e:/program files (x86)/microchip/xc32/v4.10/bin/bin/../../lib/gcc/pic32mx/8.3.1/../../../../pic32mx/lib/fpu64\libm-musl.a(cosf.o)
 .debug_ranges  0x0000000000000b60       0x60 e:/program files (x86)/microchip/xc32/v4.10/bin/bin/../../lib/gcc/pic32mx/8.3.1/../../../../pic32mx/lib/fpu64\libm-musl.a(expf.o)
 .debug_ranges  0x0000000000000bc0       0x10 e:/program files (x86)/microchip/xc32/v4.10/bin/bin/../../lib/gcc/pic32mx/8.3.1/../../../../pic32mx/lib/fpu64\libm-musl.a(log.o)
 .debug_ranges  0x0000000000000bd0       0x10 e:/program files (x86)/microchip/xc32/v4.10/bin/bin/../../lib/gcc/pic32mx/8.3.1/../../../../pic32mx/lib/fpu64\libm-musl.a(scalbnf.o)
 .debug_ranges  0x0000000000000be0       0x40 e:/program files (x86)/microchip/xc32/v4.10/bin/bin/../../lib/gcc/pic32mx/8.3.1/../../../../pic32mx/lib/fpu64\libm-musl.a(sinf.o)
 .debug_ranges  0x0000000000000c20       0x40 e:/program files (x86)/microchip/xc32/v4.10/bin/bin/../../lib/gcc/pic32mx/8.3.1/../../../../pic32mx/lib/fpu64\libm-musl.a(sqrtf.o)
 .debug_ranges  0x0000000000000c60       0x10 e:/program files (x86)/microchip/xc32/v4.10/bin/bin/../../lib/gcc/pic32mx/8.3.1/../../../../pic32mx/lib/fpu64\libm-musl.a(__cosdf.o)
 .debug_ranges  0x0000000000000c70       0x10 e:/program files (x86)/microchip/xc32/v4.10/bin/bin/../../lib/gcc/pic32mx/8.3.1/../../../../pic32mx/lib/fpu64\libm-musl.a(__rem_pio2f.o)
 .debug_ranges  0x0000000000000c80       0x10 e:/program files (x86)/microchip/xc32/v4.10/bin/bin/../../lib/gcc/pic32mx/8.3.1/../../../../pic32mx/lib/fpu64\libm-musl.a(__sindf.o)
 .debug_ranges  0x0000000000000c90       0x10 e:/program files (x86)/microchip/xc32/v4.10/bin/bin/../../lib/gcc/pic32mx/8.3.1/../../../../pic32mx/lib/fpu64\libm-musl.a(__rem_pio2_large.o)
 .debug_ranges  0x0000000000000ca0       0x10 e:/program files (x86)/microchip/xc32/v4.10/bin/bin/../../lib/gcc/pic32mx/8.3.1/../../../../pic32mx/lib/fpu64\libm-musl.a(floor.o)
 .debug_ranges  0x0000000000000cb0       0x10 e:/program files (x86)/microchip/xc32/v4.10/bin/bin/../../lib/gcc/pic32mx/8.3.1/../../../../pic32mx/lib/fpu64\libm-musl.a(scalbn.o)

.gnu.attributes
                0x0000000000000000       0x10
 *(.gnu.attributes)
 .gnu.attributes
                0x0000000000000000       0x10 e:/program files (x86)/microchip/xc32/v4.10/bin/bin/../../lib/gcc/pic32mx/8.3.1/../../../../pic32mx/lib/fpu64\debug-exception-return.o
 .gnu.attributes
                0x0000000000000010       0x10 build/pic32mk_mcm_curiosity_pro/production/_ext/423055883/Coordinate_transform.o
 .gnu.attributes
                0x0000000000000020       0x10 build/pic32mk_mcm_curiosity_pro/production/_ext/423055883/FOC_Control.o
 .gnu.attributes
                0x0000000000000030       0x10 build/pic32mk_mcm_curiosity_pro/production/_ext/423055883/Motor.o
 .gnu.attributes
                0x0000000000000040       0x10 build/pic32mk_mcm_curiosity_pro/production/_ext/423055883/PI_Cale.o
 .gnu.attributes
                0x0000000000000050       0x10 build/pic32mk_mcm_curiosity_pro/production/_ext/423055883/SVPWM.o
 .gnu.attributes
                0x0000000000000060       0x10 build/pic32mk_mcm_curiosity_pro/production/_ext/1913420649/Speed_Enconder_HALLCAL.o
 .gnu.attributes
                0x0000000000000070       0x10 build/pic32mk_mcm_curiosity_pro/production/_ext/1224054987/plib_adchs.o
 .gnu.attributes
                0x0000000000000080       0x10 build/pic32mk_mcm_curiosity_pro/production/_ext/1068833501/plib_cdac2.o
 .gnu.attributes
                0x0000000000000090       0x10 build/pic32mk_mcm_curiosity_pro/production/_ext/1068833501/plib_cdac3.o
 .gnu.attributes
                0x00000000000000a0       0x10 build/pic32mk_mcm_curiosity_pro/production/_ext/865762238/plib_clk.o
 .gnu.attributes
                0x00000000000000b0       0x10 build/pic32mk_mcm_curiosity_pro/production/_ext/1978316258/plib_eeprom.o
 .gnu.attributes
                0x00000000000000c0       0x10 build/pic32mk_mcm_curiosity_pro/production/_ext/1068756373/plib_evic.o
 .gnu.attributes
                0x00000000000000d0       0x10 build/pic32mk_mcm_curiosity_pro/production/_ext/1068702545/plib_gpio.o
 .gnu.attributes
                0x00000000000000e0       0x10 build/pic32mk_mcm_curiosity_pro/production/_ext/1540640169/plib_i2c1_master.o
 .gnu.attributes
                0x00000000000000f0       0x10 build/pic32mk_mcm_curiosity_pro/production/_ext/1068655703/plib_icap4.o
 .gnu.attributes
                0x0000000000000100       0x10 build/pic32mk_mcm_curiosity_pro/production/_ext/1068655703/plib_icap5.o
 .gnu.attributes
                0x0000000000000110       0x10 build/pic32mk_mcm_curiosity_pro/production/_ext/1068655703/plib_icap3.o
 .gnu.attributes
                0x0000000000000120       0x10 build/pic32mk_mcm_curiosity_pro/production/_ext/1235120400/plib_mcpwm.o
 .gnu.attributes
                0x0000000000000130       0x10 build/pic32mk_mcm_curiosity_pro/production/_ext/1068476585/plib_ocmp2.o
 .gnu.attributes
                0x0000000000000140       0x10 build/pic32mk_mcm_curiosity_pro/production/_ext/1068476585/plib_ocmp3.o
 .gnu.attributes
                0x0000000000000150       0x10 build/pic32mk_mcm_curiosity_pro/production/_ext/1068476585/plib_ocmp4.o
 .gnu.attributes
                0x0000000000000160       0x10 build/pic32mk_mcm_curiosity_pro/production/_ext/865749003/plib_qei1.o
 .gnu.attributes
                0x0000000000000170       0x10 build/pic32mk_mcm_curiosity_pro/production/_ext/865745863/plib_tmr2.o
 .gnu.attributes
                0x0000000000000180       0x10 build/pic32mk_mcm_curiosity_pro/production/_ext/865745863/plib_tmr3.o
 .gnu.attributes
                0x0000000000000190       0x10 build/pic32mk_mcm_curiosity_pro/production/_ext/1068299602/plib_uart6.o
 .gnu.attributes
                0x00000000000001a0       0x10 build/pic32mk_mcm_curiosity_pro/production/_ext/227981847/plib_wdt.o
 .gnu.attributes
                0x00000000000001b0       0x10 build/pic32mk_mcm_curiosity_pro/production/_ext/1163999990/xc32_monitor.o
 .gnu.attributes
                0x00000000000001c0       0x10 build/pic32mk_mcm_curiosity_pro/production/_ext/1433418692/initialization.o
 .gnu.attributes
                0x00000000000001d0       0x10 build/pic32mk_mcm_curiosity_pro/production/_ext/1433418692/interrupts.o
 .gnu.attributes
                0x00000000000001e0       0x10 build/pic32mk_mcm_curiosity_pro/production/_ext/1433418692/exceptions.o
 .gnu.attributes
                0x00000000000001f0       0x10 build/pic32mk_mcm_curiosity_pro/production/_ext/1360937237/newfile.o
 .gnu.attributes
                0x0000000000000200       0x10 build/pic32mk_mcm_curiosity_pro/production/_ext/813588705/vofa.o
 .gnu.attributes
                0x0000000000000210       0x10 build/pic32mk_mcm_curiosity_pro/production/_ext/1360937237/main.o
 .gnu.attributes
                0x0000000000000220       0x10 C:\Users\031379~1.FDI\AppData\Local\Temp\ccqTAD6z.o
 .gnu.attributes
                0x0000000000000230       0x10 C:\Users\031379~1.FDI\AppData\Local\Temp\ccLYonyh.o
 .gnu.attributes
                0x0000000000000240       0x10 C:\Users\031379~1.FDI\AppData\Local\Temp\ccSANHGf.o
 .gnu.attributes
                0x0000000000000250       0x10 C:\Users\031379~1.FDI\AppData\Local\Temp\ccOQxQHj.o
 .gnu.attributes
                0x0000000000000260       0x10 e:/program files (x86)/microchip/xc32/v4.10/bin/bin/../../lib/gcc/pic32mx/8.3.1/../../../../pic32mx/lib/fpu64\pic32_software_reset.o
 .gnu.attributes
                0x0000000000000270       0x10 e:/program files (x86)/microchip/xc32/v4.10/bin/bin/../../lib/gcc/pic32mx/8.3.1/../../../../pic32mx/lib/fpu64\libpic32.a(memcpy.o)
 .gnu.attributes
                0x0000000000000280       0x10 e:/program files (x86)/microchip/xc32/v4.10/bin/bin/../../lib/gcc/pic32mx/8.3.1/../../../../pic32mx/lib/fpu64\libpic32.a(memset.o)
 .gnu.attributes
                0x0000000000000290       0x10 e:/program files (x86)/microchip/xc32/v4.10/bin/bin/../../lib/gcc/pic32mx/8.3.1/../../../../pic32mx/lib/fpu64\libpic32.a(default-on-reset.o)
 .gnu.attributes
                0x00000000000002a0       0x10 e:/program files (x86)/microchip/xc32/v4.10/bin/bin/../../lib/gcc/pic32mx/8.3.1/../../../../pic32mx/lib/fpu64\libpic32.a(default-on-bootstrap.o)
 .gnu.attributes
                0x00000000000002b0       0x10 e:/program files (x86)/microchip/xc32/v4.10/bin/bin/../../lib/gcc/pic32mx/8.3.1/../../../../pic32mx/lib/fpu64\libpic32.a(default-nmi-handler.o)
 .gnu.attributes
                0x00000000000002c0       0x10 e:/program files (x86)/microchip/xc32/v4.10/bin/bin/../../lib/gcc/pic32mx/8.3.1/../../../../pic32mx/lib/fpu64\libpic32.a(pic32_data_init.o)
 .gnu.attributes
                0x00000000000002d0       0x10 e:/program files (x86)/microchip/xc32/v4.10/bin/bin/../../lib/gcc/pic32mx/8.3.1/../../../../pic32mx/lib/fpu64\libpic32.a(general-exception.o)
 .gnu.attributes
                0x00000000000002e0       0x10 e:/program files (x86)/microchip/xc32/v4.10/bin/bin/../../lib/gcc/pic32mx/8.3.1/../../../../pic32mx/lib/fpu64\libpic32.a(defaultinterrupt.o)
 .gnu.attributes
                0x00000000000002f0       0x10 e:/program files (x86)/microchip/xc32/v4.10/bin/bin/../../lib/gcc/pic32mx/8.3.1/../../../../pic32mx/lib/fpu64\libm-musl.a(cosf.o)
 .gnu.attributes
                0x0000000000000300       0x10 e:/program files (x86)/microchip/xc32/v4.10/bin/bin/../../lib/gcc/pic32mx/8.3.1/../../../../pic32mx/lib/fpu64\libm-musl.a(expf.o)
 .gnu.attributes
                0x0000000000000310       0x10 e:/program files (x86)/microchip/xc32/v4.10/bin/bin/../../lib/gcc/pic32mx/8.3.1/../../../../pic32mx/lib/fpu64\libm-musl.a(log.o)
 .gnu.attributes
                0x0000000000000320       0x10 e:/program files (x86)/microchip/xc32/v4.10/bin/bin/../../lib/gcc/pic32mx/8.3.1/../../../../pic32mx/lib/fpu64\libm-musl.a(scalbnf.o)
 .gnu.attributes
                0x0000000000000330       0x10 e:/program files (x86)/microchip/xc32/v4.10/bin/bin/../../lib/gcc/pic32mx/8.3.1/../../../../pic32mx/lib/fpu64\libm-musl.a(sinf.o)
 .gnu.attributes
                0x0000000000000340       0x10 e:/program files (x86)/microchip/xc32/v4.10/bin/bin/../../lib/gcc/pic32mx/8.3.1/../../../../pic32mx/lib/fpu64\libm-musl.a(sqrtf.o)
 .gnu.attributes
                0x0000000000000350       0x10 e:/program files (x86)/microchip/xc32/v4.10/bin/bin/../../lib/gcc/pic32mx/8.3.1/../../../../pic32mx/lib/fpu64\libm-musl.a(__cosdf.o)
 .gnu.attributes
                0x0000000000000360       0x10 e:/program files (x86)/microchip/xc32/v4.10/bin/bin/../../lib/gcc/pic32mx/8.3.1/../../../../pic32mx/lib/fpu64\libm-musl.a(__rem_pio2f.o)
 .gnu.attributes
                0x0000000000000370       0x10 e:/program files (x86)/microchip/xc32/v4.10/bin/bin/../../lib/gcc/pic32mx/8.3.1/../../../../pic32mx/lib/fpu64\libm-musl.a(__sindf.o)
 .gnu.attributes
                0x0000000000000380       0x10 e:/program files (x86)/microchip/xc32/v4.10/bin/bin/../../lib/gcc/pic32mx/8.3.1/../../../../pic32mx/lib/fpu64\libm-musl.a(__rem_pio2_large.o)
 .gnu.attributes
                0x0000000000000390       0x10 e:/program files (x86)/microchip/xc32/v4.10/bin/bin/../../lib/gcc/pic32mx/8.3.1/../../../../pic32mx/lib/fpu64\libm-musl.a(floor.o)
 .gnu.attributes
                0x00000000000003a0       0x10 e:/program files (x86)/microchip/xc32/v4.10/bin/bin/../../lib/gcc/pic32mx/8.3.1/../../../../pic32mx/lib/fpu64\libm-musl.a(scalbn.o)
 .gnu.attributes
                0x00000000000003b0       0x10 e:/program files (x86)/microchip/xc32/v4.10/bin/bin/../../lib/gcc/pic32mx/8.3.1/../../../../pic32mx/lib/fpu64\libpic32.a(errno.o)
                0x0000000000000200                _min_heap_size = 0x200
LOAD C:\Users\031379~1.FDI\AppData\Local\Temp\ccqTAD6z.o
LOAD C:\Users\031379~1.FDI\AppData\Local\Temp\ccLYonyh.o
LOAD C:\Users\031379~1.FDI\AppData\Local\Temp\ccSANHGf.o
LOAD C:\Users\031379~1.FDI\AppData\Local\Temp\ccOQxQHj.o
LOAD e:/program files (x86)/microchip/xc32/v4.10/bin/bin/../../lib/gcc/pic32mx/8.3.1/../../../../pic32mx/lib/fpu64\pic32_software_reset.o
LOAD e:/program files (x86)/microchip/xc32/v4.10/bin/bin/../../lib/gcc/pic32mx/8.3.1/fpu64\libgcc.a
START GROUP
LOAD e:/program files (x86)/microchip/xc32/v4.10/bin/bin/../../lib/gcc/pic32mx/8.3.1/../../../../pic32mx/lib/fpu64\libpic32.a
LOAD e:/program files (x86)/microchip/xc32/v4.10/bin/bin/../../lib/gcc/pic32mx/8.3.1/../../../../pic32mx/lib/fpu64\libdebug.a
LOAD e:/program files (x86)/microchip/xc32/v4.10/bin/bin/../../lib/gcc/pic32mx/8.3.1/../../../../pic32mx/lib/fpu64\libc-musl.a
LOAD e:/program files (x86)/microchip/xc32/v4.10/bin/bin/../../lib/gcc/pic32mx/8.3.1/../../../../pic32mx/lib/fpu64\libm-musl.a
LOAD e:/program files (x86)/microchip/xc32/v4.10/bin/bin/../../lib/gcc/pic32mx/8.3.1/../../../../pic32mx/lib/fpu64\libdspr2.a
LOAD e:/program files (x86)/microchip/xc32/v4.10/bin/bin/../../lib/gcc/pic32mx/8.3.1/../../../../pic32mx/lib/fpu64\libdsp.a
LOAD e:/program files (x86)/microchip/xc32/v4.10/bin/bin/../../lib/gcc/pic32mx/8.3.1/fpu64\libgcc.a
END GROUP
LOAD e:/program files (x86)/microchip/xc32/v4.10/bin/bin/../../lib/gcc/pic32mx/8.3.1/fpu64\libgcc.a
OUTPUT(dist/pic32mk_mcm_curiosity_pro/production/dcu_1000_xzw.X.production.elf elf32-tradlittlemips)
LOAD stack
LOAD data_init

.reginfo        0x0000000000000000       0x18
 .reginfo       0x0000000000000000       0x18 e:/program files (x86)/microchip/xc32/v4.10/bin/bin/../../lib/gcc/pic32mx/8.3.1/../../../../pic32mx/lib/fpu64\debug-exception-return.o

.codecov_info.hdr
                0x0000000000000000       0x10
 .codecov_info.hdr
                0x0000000000000000       0x10 build/pic32mk_mcm_curiosity_pro/production/_ext/423055883/Coordinate_transform.o

.codecov_info   0x0000000000000000     0x5f28
 .codecov_info  0x0000000000000000      0x184 build/pic32mk_mcm_curiosity_pro/production/_ext/423055883/Coordinate_transform.o
 .codecov_info  0x0000000000000184      0x834 build/pic32mk_mcm_curiosity_pro/production/_ext/423055883/FOC_Control.o
 .codecov_info  0x00000000000009b8      0x89c build/pic32mk_mcm_curiosity_pro/production/_ext/423055883/Motor.o
 .codecov_info  0x0000000000001254      0x1d4 build/pic32mk_mcm_curiosity_pro/production/_ext/423055883/PI_Cale.o
 .codecov_info  0x0000000000001428      0x334 build/pic32mk_mcm_curiosity_pro/production/_ext/423055883/SVPWM.o
 .codecov_info  0x000000000000175c      0x2d4 build/pic32mk_mcm_curiosity_pro/production/_ext/1913420649/Speed_Enconder_HALLCAL.o
 .codecov_info  0x0000000000001a30      0x88c build/pic32mk_mcm_curiosity_pro/production/_ext/1224054987/plib_adchs.o
 .codecov_info  0x00000000000022bc       0x34 build/pic32mk_mcm_curiosity_pro/production/_ext/1068833501/plib_cdac2.o
 .codecov_info  0x00000000000022f0       0x34 build/pic32mk_mcm_curiosity_pro/production/_ext/1068833501/plib_cdac3.o
 .codecov_info  0x0000000000002324       0x24 build/pic32mk_mcm_curiosity_pro/production/_ext/865762238/plib_clk.o
 .codecov_info  0x0000000000002348      0x2c4 build/pic32mk_mcm_curiosity_pro/production/_ext/1978316258/plib_eeprom.o
 .codecov_info  0x000000000000260c       0xd4 build/pic32mk_mcm_curiosity_pro/production/_ext/1068756373/plib_evic.o
 .codecov_info  0x00000000000026e0       0xa4 build/pic32mk_mcm_curiosity_pro/production/_ext/1068702545/plib_gpio.o
 .codecov_info  0x0000000000002784      0xc54 build/pic32mk_mcm_curiosity_pro/production/_ext/1540640169/plib_i2c1_master.o
 .codecov_info  0x00000000000033d8       0xa4 build/pic32mk_mcm_curiosity_pro/production/_ext/1068655703/plib_icap4.o
 .codecov_info  0x000000000000347c       0xa4 build/pic32mk_mcm_curiosity_pro/production/_ext/1068655703/plib_icap5.o
 .codecov_info  0x0000000000003520       0xa4 build/pic32mk_mcm_curiosity_pro/production/_ext/1068655703/plib_icap3.o
 .codecov_info  0x00000000000035c4      0x36c build/pic32mk_mcm_curiosity_pro/production/_ext/1235120400/plib_mcpwm.o
 .codecov_info  0x0000000000003930       0x74 build/pic32mk_mcm_curiosity_pro/production/_ext/1068476585/plib_ocmp2.o
 .codecov_info  0x00000000000039a4       0x74 build/pic32mk_mcm_curiosity_pro/production/_ext/1068476585/plib_ocmp3.o
 .codecov_info  0x0000000000003a18       0x74 build/pic32mk_mcm_curiosity_pro/production/_ext/1068476585/plib_ocmp4.o
 .codecov_info  0x0000000000003a8c       0x84 build/pic32mk_mcm_curiosity_pro/production/_ext/865749003/plib_qei1.o
 .codecov_info  0x0000000000003b10       0xe4 build/pic32mk_mcm_curiosity_pro/production/_ext/865745863/plib_tmr2.o
 .codecov_info  0x0000000000003bf4      0x154 build/pic32mk_mcm_curiosity_pro/production/_ext/865745863/plib_tmr3.o
 .codecov_info  0x0000000000003d48      0xebc build/pic32mk_mcm_curiosity_pro/production/_ext/1068299602/plib_uart6.o
 .codecov_info  0x0000000000004c04       0x64 build/pic32mk_mcm_curiosity_pro/production/_ext/227981847/plib_wdt.o
 .codecov_info  0x0000000000004c68      0x184 build/pic32mk_mcm_curiosity_pro/production/_ext/1163999990/xc32_monitor.o
 .codecov_info  0x0000000000004dec      0x154 build/pic32mk_mcm_curiosity_pro/production/_ext/1433418692/initialization.o
 .codecov_info  0x0000000000004f40      0x204 build/pic32mk_mcm_curiosity_pro/production/_ext/1433418692/interrupts.o
 .codecov_info  0x0000000000005144      0x174 build/pic32mk_mcm_curiosity_pro/production/_ext/1433418692/exceptions.o
 .codecov_info  0x00000000000052b8      0x7cc build/pic32mk_mcm_curiosity_pro/production/_ext/813588705/vofa.o
 .codecov_info  0x0000000000005a84      0x4a4 build/pic32mk_mcm_curiosity_pro/production/_ext/1360937237/main.o

.stack          0x00000000800015f8      0x400
 .stack         0x00000000800015f8      0x400 stack

.__vector_offset_BF8105B8_data
                0x00000000bf8105b8       0xfc
 .__vector_offset_BF8105B8_data
                0x00000000bf8105b8       0xfc C:\Users\031379~1.FDI\AppData\Local\Temp\ccSANHGf.o

.__vector_offset_BF8106B8_data
                0x00000000bf8106b8       0xa0
 .__vector_offset_BF8106B8_data
                0x00000000bf8106b8       0xa0 C:\Users\031379~1.FDI\AppData\Local\Temp\ccSANHGf.o

.__vector_offset_BF810848_data
                0x00000000bf810848       0x94
 .__vector_offset_BF810848_data
                0x00000000bf810848       0x94 C:\Users\031379~1.FDI\AppData\Local\Temp\ccSANHGf.o

.__vector_offset_BF8107D0_data
                0x00000000bf8107d0       0x74
 .__vector_offset_BF8107D0_data
                0x00000000bf8107d0       0x74 C:\Users\031379~1.FDI\AppData\Local\Temp\ccSANHGf.o

.__vector_offset_BF810540_data
                0x00000000bf810540       0x70
 .__vector_offset_BF810540_data
                0x00000000bf810540       0x70 C:\Users\031379~1.FDI\AppData\Local\Temp\ccSANHGf.o

.__vector_offset_BF81079C_data
                0x00000000bf81079c       0x30
 .__vector_offset_BF81079C_data
                0x00000000bf81079c       0x30 C:\Users\031379~1.FDI\AppData\Local\Temp\ccSANHGf.o

.__vector_offset_BF8108F8_data
                0x00000000bf8108f8       0x28
 .__vector_offset_BF8108F8_data
                0x00000000bf8108f8       0x28 C:\Users\031379~1.FDI\AppData\Local\Temp\ccSANHGf.o

.__vector_offset_BF81076C_data
                0x00000000bf81076c       0x24
 .__vector_offset_BF81076C_data
                0x00000000bf81076c       0x24 C:\Users\031379~1.FDI\AppData\Local\Temp\ccSANHGf.o

.__vector_offset_BF810938_data
                0x00000000bf810938        0x8
 .__vector_offset_BF810938_data
                0x00000000bf810938        0x8 C:\Users\031379~1.FDI\AppData\Local\Temp\ccSANHGf.o

.bss            0x0000000080000934      0x84e
 .bss           0x0000000080000934      0x84e build/pic32mk_mcm_curiosity_pro/production/_ext/1068299602/plib_uart6.o
                0x0000000080000934                txBuffer

.bss            0x0000000080001184      0x16c
 .bss           0x0000000080001184       0xdc build/pic32mk_mcm_curiosity_pro/production/_ext/423055883/FOC_Control.o
                0x0000000080001184                CLARKE_ICurr
                0x0000000080001198                CLARKE_UCurr
                0x00000000800011ac                PARK_PCurr
                0x00000000800011c0                IPARK_PVdq
                0x00000000800011d4                ICLARKE_PVuvw
                0x00000000800011e8                Motor
                0x000000008000121c                IF_Freq_GXieLv
                0x000000008000122c                Speed_Ref_GXieLv
                0x000000008000123c                Idq_Ref_GXieLv
                0x000000008000124c                IPARK_SMO_PVdq
 .bss           0x0000000080001260       0x90 build/pic32mk_mcm_curiosity_pro/production/_ext/423055883/PI_Cale.o
                0x0000000080001260                pi_spd
                0x0000000080001290                pi_id
                0x00000000800012c0                pi_iq

.bss            0x00000000800012f0       0x93
 .bss           0x00000000800012f0       0x54 build/pic32mk_mcm_curiosity_pro/production/_ext/813588705/vofa.o
 .bss           0x0000000080001344       0x3f build/pic32mk_mcm_curiosity_pro/production/_ext/1540640169/plib_i2c1_master.o

.bss            0x0000000080001384       0x54
 .bss           0x0000000080001384       0x2c build/pic32mk_mcm_curiosity_pro/production/_ext/1224054987/plib_adchs.o
                0x0000000080001384                ADC_Sample_Para
                0x000000008000139c                ADC_Sample_F_Para
 .bss           0x00000000800013b0       0x28 build/pic32mk_mcm_curiosity_pro/production/_ext/423055883/SVPWM.o
                0x00000000800013b0                SVPWM_dq

.bss.errno      0x00000000800013d8        0x4
 .bss.errno     0x00000000800013d8        0x4 e:/program files (x86)/microchip/xc32/v4.10/bin/bin/../../lib/gcc/pic32mx/8.3.1/../../../../pic32mx/lib/fpu64\libpic32.a(errno.o)
                0x00000000800013d8                errno

._debug_exception
                0x00000000bfc00480       0x2c
 ._debug_exception
                0x00000000bfc00480       0x2c e:/program files (x86)/microchip/xc32/v4.10/bin/bin/../../lib/gcc/pic32mx/8.3.1/../../../../pic32mx/lib/fpu64\debug-exception-return.o
                0x00000000bfc00480                __DbgExecReturn

.rodata         0x000000009d0002a8     0x1364
 .rodata        0x000000009d0002a8     0x1364 build/pic32mk_mcm_curiosity_pro/production/_ext/423055883/Motor.o
                0x000000009d0002a8                ualpha_tab
                0x000000009d000848                ubeta_tab
                0x000000009d000de8                atanTab

.text.I2C1_TransferSM
                0x000000009d00160c      0x884
 .text.I2C1_TransferSM
                0x000000009d00160c      0x884 build/pic32mk_mcm_curiosity_pro/production/_ext/1540640169/plib_i2c1_master.o

.text.__rem_pio2_large
                0x000000009d001e90      0x848
 .text.__rem_pio2_large
                0x000000009d001e90      0x848 e:/program files (x86)/microchip/xc32/v4.10/bin/bin/../../lib/gcc/pic32mx/8.3.1/../../../../pic32mx/lib/fpu64\libm-musl.a(__rem_pio2_large.o)
                0x000000009d001e90                __rem_pio2_large

.dinit          0x000000009d0026d8      0x790
 .dinit         0x000000009d0026d8      0x790 data_init

.text.Fault_Detection
                0x000000009d002e68      0x478
 .text.Fault_Detection
                0x000000009d002e68      0x478 build/pic32mk_mcm_curiosity_pro/production/_ext/423055883/FOC_Control.o
                0x000000009d002e68                Fault_Detection

.text.SVPWM_Cale
                0x000000009d0032e0      0x458
 .text.SVPWM_Cale
                0x000000009d0032e0      0x458 build/pic32mk_mcm_curiosity_pro/production/_ext/423055883/SVPWM.o
                0x000000009d0032e0                SVPWM_Cale

.text.main      0x000000009d003738      0x444
 .text.main     0x000000009d003738      0x444 build/pic32mk_mcm_curiosity_pro/production/_ext/1360937237/main.o
                0x000000009d003738                main

.text.my_atan2  0x000000009d003b7c      0x428
 .text.my_atan2
                0x000000009d003b7c      0x428 build/pic32mk_mcm_curiosity_pro/production/_ext/423055883/Motor.o
                0x000000009d003b7c                my_atan2

.text.my_atan   0x000000009d003fa4      0x398
 .text.my_atan  0x000000009d003fa4      0x398 build/pic32mk_mcm_curiosity_pro/production/_ext/423055883/Motor.o
                0x000000009d003fa4                my_atan

.text.UART6_SerialSetup
                0x000000009d00433c      0x380
 .text.UART6_SerialSetup
                0x000000009d00433c      0x380 build/pic32mk_mcm_curiosity_pro/production/_ext/1068299602/plib_uart6.o
                0x000000009d00433c                UART6_SerialSetup

.text.Speed_Closeloop
                0x000000009d0046bc      0x378
 .text.Speed_Closeloop
                0x000000009d0046bc      0x378 build/pic32mk_mcm_curiosity_pro/production/_ext/423055883/FOC_Control.o
                0x000000009d0046bc                Speed_Closeloop

.text.RGB_ledControl
                0x000000009d004a34      0x34c
 .text.RGB_ledControl
                0x000000009d004a34      0x34c build/pic32mk_mcm_curiosity_pro/production/_ext/813588705/vofa.o
                0x000000009d004a34                RGB_ledControl

.text.ADC_ResultHandler
                0x000000009d004d80      0x33c
 .text.ADC_ResultHandler
                0x000000009d004d80      0x33c build/pic32mk_mcm_curiosity_pro/production/_ext/1224054987/plib_adchs.o
                0x000000009d004d80                ADC_ResultHandler

.text.IF_Start_Control
                0x000000009d0050bc      0x2f8
 .text.IF_Start_Control
                0x000000009d0050bc      0x2f8 build/pic32mk_mcm_curiosity_pro/production/_ext/423055883/FOC_Control.o
                0x000000009d0050bc                IF_Start_Control

.text.XzwVfsend
                0x000000009d0053b4      0x2b4
 .text.XzwVfsend
                0x000000009d0053b4      0x2b4 build/pic32mk_mcm_curiosity_pro/production/_ext/813588705/vofa.o
                0x000000009d0053b4                XzwVfsend

.text.ADCHS_Initialize
                0x000000009d005668      0x29c
 .text.ADCHS_Initialize
                0x000000009d005668      0x29c build/pic32mk_mcm_curiosity_pro/production/_ext/1224054987/plib_adchs.o
                0x000000009d005668                ADCHS_Initialize

.text.PWM1_InterruptHandler
                0x000000009d005904      0x27c
 .text.PWM1_InterruptHandler
                0x000000009d005904      0x27c build/pic32mk_mcm_curiosity_pro/production/_ext/1235120400/plib_mcpwm.o
                0x000000009d005904                PWM1_InterruptHandler

.text.MCPWM_Initialize
                0x000000009d005b80      0x254
 .text.MCPWM_Initialize
                0x000000009d005b80      0x254 build/pic32mk_mcm_curiosity_pro/production/_ext/1235120400/plib_mcpwm.o
                0x000000009d005b80                MCPWM_Initialize

.text.I2C1_TransferSetup
                0x000000009d005dd4      0x238
 .text.I2C1_TransferSetup
                0x000000009d005dd4      0x238 build/pic32mk_mcm_curiosity_pro/production/_ext/1540640169/plib_i2c1_master.o
                0x000000009d005dd4                I2C1_TransferSetup

.text.Get_Speed
                0x000000009d00600c      0x234
 .text.Get_Speed
                0x000000009d00600c      0x234 build/pic32mk_mcm_curiosity_pro/production/_ext/1913420649/Speed_Enconder_HALLCAL.o
                0x000000009d00600c                Get_Speed

.text.Variable_Clear
                0x000000009d006240      0x20c
 .text.Variable_Clear
                0x000000009d006240      0x20c build/pic32mk_mcm_curiosity_pro/production/_ext/423055883/FOC_Control.o
                0x000000009d006240                Variable_Clear

.text.XzwVfGet  0x000000009d00644c      0x20c
 .text.XzwVfGet
                0x000000009d00644c      0x20c build/pic32mk_mcm_curiosity_pro/production/_ext/813588705/vofa.o
                0x000000009d00644c                XzwVfGet

.text.UART6_RxPushByte
                0x000000009d006658      0x1fc
 .text.UART6_RxPushByte
                0x000000009d006658      0x1fc build/pic32mk_mcm_curiosity_pro/production/_ext/1068299602/plib_uart6.o

.text.TIMER_3_Handler
                0x000000009d006854      0x1f8
 .text.TIMER_3_Handler
                0x000000009d006854      0x1f8 build/pic32mk_mcm_curiosity_pro/production/_ext/1433418692/interrupts.o
                0x000000009d006854                TIMER_3_Handler

.text.INPUT_CAPTURE_3_Handler
                0x000000009d006a4c      0x1f8
 .text.INPUT_CAPTURE_3_Handler
                0x000000009d006a4c      0x1f8 build/pic32mk_mcm_curiosity_pro/production/_ext/1433418692/interrupts.o
                0x000000009d006a4c                INPUT_CAPTURE_3_Handler

.text.INPUT_CAPTURE_4_Handler
                0x000000009d006c44      0x1f8
 .text.INPUT_CAPTURE_4_Handler
                0x000000009d006c44      0x1f8 build/pic32mk_mcm_curiosity_pro/production/_ext/1433418692/interrupts.o
                0x000000009d006c44                INPUT_CAPTURE_4_Handler

.text.INPUT_CAPTURE_5_Handler
                0x000000009d006e3c      0x1f8
 .text.INPUT_CAPTURE_5_Handler
                0x000000009d006e3c      0x1f8 build/pic32mk_mcm_curiosity_pro/production/_ext/1433418692/interrupts.o
                0x000000009d006e3c                INPUT_CAPTURE_5_Handler

.text.I2C1_BUS_Handler
                0x000000009d007034      0x1f8
 .text.I2C1_BUS_Handler
                0x000000009d007034      0x1f8 build/pic32mk_mcm_curiosity_pro/production/_ext/1433418692/interrupts.o
                0x000000009d007034                I2C1_BUS_Handler

.text.I2C1_MASTER_Handler
                0x000000009d00722c      0x1f8
 .text.I2C1_MASTER_Handler
                0x000000009d00722c      0x1f8 build/pic32mk_mcm_curiosity_pro/production/_ext/1433418692/interrupts.o
                0x000000009d00722c                I2C1_MASTER_Handler

.text.ADC_DATA0_Handler
                0x000000009d007424      0x1f8
 .text.ADC_DATA0_Handler
                0x000000009d007424      0x1f8 build/pic32mk_mcm_curiosity_pro/production/_ext/1433418692/interrupts.o
                0x000000009d007424                ADC_DATA0_Handler

.text.ADC_DATA1_Handler
                0x000000009d00761c      0x1f8
 .text.ADC_DATA1_Handler
                0x000000009d00761c      0x1f8 build/pic32mk_mcm_curiosity_pro/production/_ext/1433418692/interrupts.o
                0x000000009d00761c                ADC_DATA1_Handler

.text.UART6_FAULT_Handler
                0x000000009d007814      0x1f8
 .text.UART6_FAULT_Handler
                0x000000009d007814      0x1f8 build/pic32mk_mcm_curiosity_pro/production/_ext/1433418692/interrupts.o
                0x000000009d007814                UART6_FAULT_Handler

.text.UART6_RX_Handler
                0x000000009d007a0c      0x1f8
 .text.UART6_RX_Handler
                0x000000009d007a0c      0x1f8 build/pic32mk_mcm_curiosity_pro/production/_ext/1433418692/interrupts.o
                0x000000009d007a0c                UART6_RX_Handler

.text.UART6_TX_Handler
                0x000000009d007c04      0x1f8
 .text.UART6_TX_Handler
                0x000000009d007c04      0x1f8 build/pic32mk_mcm_curiosity_pro/production/_ext/1433418692/interrupts.o
                0x000000009d007c04                UART6_TX_Handler

.text.PWM1_Handler
                0x000000009d007dfc      0x1f8
 .text.PWM1_Handler
                0x000000009d007dfc      0x1f8 build/pic32mk_mcm_curiosity_pro/production/_ext/1433418692/interrupts.o
                0x000000009d007dfc                PWM1_Handler

.text.sinf      0x000000009d007ff4      0x1f0
 .text.sinf     0x000000009d007ff4      0x1f0 e:/program files (x86)/microchip/xc32/v4.10/bin/bin/../../lib/gcc/pic32mx/8.3.1/../../../../pic32mx/lib/fpu64\libm-musl.a(sinf.o)
                0x000000009d007ff4                sinf

.text.expf      0x000000009d0081e4      0x1ec
 .text.expf     0x000000009d0081e4      0x1ec e:/program files (x86)/microchip/xc32/v4.10/bin/bin/../../lib/gcc/pic32mx/8.3.1/../../../../pic32mx/lib/fpu64\libm-musl.a(expf.o)
                0x000000009d0081e4                expf

.text.temp_trans
                0x000000009d0083d0      0x1e8
 .text.temp_trans
                0x000000009d0083d0      0x1e8 build/pic32mk_mcm_curiosity_pro/production/_ext/1224054987/plib_adchs.o
                0x000000009d0083d0                temp_trans

.text.cosf      0x000000009d0085b8      0x1c4
 .text.cosf     0x000000009d0085b8      0x1c4 e:/program files (x86)/microchip/xc32/v4.10/bin/bin/../../lib/gcc/pic32mx/8.3.1/../../../../pic32mx/lib/fpu64\libm-musl.a(cosf.o)
                0x000000009d0085b8                cosf

.text.UART6_Read
                0x000000009d00877c      0x1b4
 .text.UART6_Read
                0x000000009d00877c      0x1b4 build/pic32mk_mcm_curiosity_pro/production/_ext/1068299602/plib_uart6.o
                0x000000009d00877c                UART6_Read

.text.GPIO_Initialize
                0x000000009d008930      0x1a8
 .text.GPIO_Initialize
                0x000000009d008930      0x1a8 build/pic32mk_mcm_curiosity_pro/production/_ext/1068702545/plib_gpio.o
                0x000000009d008930                GPIO_Initialize

.text.log       0x000000009d008ad8      0x1a8
 .text.log      0x000000009d008ad8      0x1a8 e:/program files (x86)/microchip/xc32/v4.10/bin/bin/../../lib/gcc/pic32mx/8.3.1/../../../../pic32mx/lib/fpu64\libm-musl.a(log.o)
                0x000000009d008ad8                log

.text.UART6_Initialize
                0x000000009d008c80      0x1a4
 .text.UART6_Initialize
                0x000000009d008c80      0x1a4 build/pic32mk_mcm_curiosity_pro/production/_ext/1068299602/plib_uart6.o
                0x000000009d008c80                UART6_Initialize

.text.ADC_Sample_Offset
                0x000000009d008e24      0x194
 .text.ADC_Sample_Offset
                0x000000009d008e24      0x194 build/pic32mk_mcm_curiosity_pro/production/_ext/1224054987/plib_adchs.o
                0x000000009d008e24                ADC_Sample_Offset

.text.PI_Pare_init
                0x000000009d008fb8      0x190
 .text.PI_Pare_init
                0x000000009d008fb8      0x190 build/pic32mk_mcm_curiosity_pro/production/_ext/423055883/PI_Cale.o
                0x000000009d008fb8                PI_Pare_init

.text.PWM_PeriodHandler
                0x000000009d000000      0x17c
 .text.PWM_PeriodHandler
                0x000000009d000000      0x17c build/pic32mk_mcm_curiosity_pro/production/_ext/1360937237/main.o
                0x000000009d000000                PWM_PeriodHandler

.text.UART6_Write
                0x000000009d009148      0x174
 .text.UART6_Write
                0x000000009d009148      0x174 build/pic32mk_mcm_curiosity_pro/production/_ext/1068299602/plib_uart6.o
                0x000000009d009148                UART6_Write

.text           0x000000009d0092bc      0x168
 .text          0x000000009d0092bc      0x168 e:/program files (x86)/microchip/xc32/v4.10/bin/bin/../../lib/gcc/pic32mx/8.3.1/../../../../pic32mx/lib/fpu64\libpic32.a(memcpy.o)
                0x000000009d0092bc                memcpy

.text.I2C1_WriteRead
                0x000000009d009424      0x160
 .text.I2C1_WriteRead
                0x000000009d009424      0x160 build/pic32mk_mcm_curiosity_pro/production/_ext/1540640169/plib_i2c1_master.o
                0x000000009d009424                I2C1_WriteRead

.text.UART6_TX_InterruptHandler
                0x000000009d009584      0x15c
 .text.UART6_TX_InterruptHandler
                0x000000009d009584      0x15c build/pic32mk_mcm_curiosity_pro/production/_ext/1068299602/plib_uart6.o
                0x000000009d009584                UART6_TX_InterruptHandler

.text.I2C1_Read
                0x000000009d0096e0      0x158
 .text.I2C1_Read
                0x000000009d0096e0      0x158 build/pic32mk_mcm_curiosity_pro/production/_ext/1540640169/plib_i2c1_master.o
                0x000000009d0096e0                I2C1_Read

.text.UART6_ReadNotificationSend
                0x000000009d009838      0x158
 .text.UART6_ReadNotificationSend
                0x000000009d009838      0x158 build/pic32mk_mcm_curiosity_pro/production/_ext/1068299602/plib_uart6.o

.rodata         0x000000009d009990      0x158
 .rodata        0x000000009d009990      0x158 e:/program files (x86)/microchip/xc32/v4.10/bin/bin/../../lib/gcc/pic32mx/8.3.1/../../../../pic32mx/lib/fpu64\libm-musl.a(__rem_pio2_large.o)

.text.I2C1_Write
                0x000000009d009ae8      0x154
 .text.I2C1_Write
                0x000000009d009ae8      0x154 build/pic32mk_mcm_curiosity_pro/production/_ext/1540640169/plib_i2c1_master.o
                0x000000009d009ae8                I2C1_Write

.text.UART6_TxPullByte
                0x000000009d009c3c      0x150
 .text.UART6_TxPullByte
                0x000000009d009c3c      0x150 build/pic32mk_mcm_curiosity_pro/production/_ext/1068299602/plib_uart6.o

.text.EEPROM_Initialize
                0x000000009d009d8c      0x14c
 .text.EEPROM_Initialize
                0x000000009d009d8c      0x14c build/pic32mk_mcm_curiosity_pro/production/_ext/1978316258/plib_eeprom.o
                0x000000009d009d8c                EEPROM_Initialize

.text.UART6_WriteNotificationSend
                0x000000009d009ed8      0x14c
 .text.UART6_WriteNotificationSend
                0x000000009d009ed8      0x14c build/pic32mk_mcm_curiosity_pro/production/_ext/1068299602/plib_uart6.o

.text.ADC_SAMPLE
                0x000000009d00a024      0x148
 .text.ADC_SAMPLE
                0x000000009d00a024      0x148 build/pic32mk_mcm_curiosity_pro/production/_ext/1224054987/plib_adchs.o
                0x000000009d00a024                ADC_SAMPLE

.text.UART6_TxPushByte
                0x000000009d00a16c      0x148
 .text.UART6_TxPushByte
                0x000000009d00a16c      0x148 build/pic32mk_mcm_curiosity_pro/production/_ext/1068299602/plib_uart6.o

.text.ADC_Sample_Deal
                0x000000009d00a2b4      0x134
 .text.ADC_Sample_Deal
                0x000000009d00a2b4      0x134 build/pic32mk_mcm_curiosity_pro/production/_ext/1224054987/plib_adchs.o
                0x000000009d00a2b4                ADC_Sample_Deal

.text.sqrtf     0x000000009d00a3e8      0x134
 .text.sqrtf    0x000000009d00a3e8      0x134 e:/program files (x86)/microchip/xc32/v4.10/bin/bin/../../lib/gcc/pic32mx/8.3.1/../../../../pic32mx/lib/fpu64\libm-musl.a(sqrtf.o)
                0x000000009d00a3e8                sqrtf

.text.Control_Mode_CmdPara
                0x000000009d00a51c      0x128
 .text.Control_Mode_CmdPara
                0x000000009d00a51c      0x128 build/pic32mk_mcm_curiosity_pro/production/_ext/423055883/FOC_Control.o
                0x000000009d00a51c                Control_Mode_CmdPara

.text.INPUT_CAPTURE_XZW
                0x000000009d00a644      0x120
 .text.INPUT_CAPTURE_XZW
                0x000000009d00a644      0x120 build/pic32mk_mcm_curiosity_pro/production/_ext/1360937237/main.o
                0x000000009d00a644                INPUT_CAPTURE_XZW

.text.CLK_Initialize
                0x000000009d00a764      0x11c
 .text.CLK_Initialize
                0x000000009d00a764      0x11c build/pic32mk_mcm_curiosity_pro/production/_ext/865762238/plib_clk.o
                0x000000009d00a764                CLK_Initialize

.text.UVW_Axis_dq
                0x000000009d00a880      0x118
 .text.UVW_Axis_dq
                0x000000009d00a880      0x118 build/pic32mk_mcm_curiosity_pro/production/_ext/423055883/FOC_Control.o
                0x000000009d00a880                UVW_Axis_dq

.text.Grad_XieLv
                0x000000009d00a998      0x110
 .text.Grad_XieLv
                0x000000009d00a998      0x110 build/pic32mk_mcm_curiosity_pro/production/_ext/423055883/FOC_Control.o
                0x000000009d00a998                Grad_XieLv

.text.PI_Controller
                0x000000009d00aaa8      0x110
 .text.PI_Controller
                0x000000009d00aaa8      0x110 build/pic32mk_mcm_curiosity_pro/production/_ext/423055883/PI_Cale.o
                0x000000009d00aaa8                PI_Controller

.text.__rem_pio2f
                0x000000009d00abb8      0x110
 .text.__rem_pio2f
                0x000000009d00abb8      0x110 e:/program files (x86)/microchip/xc32/v4.10/bin/bin/../../lib/gcc/pic32mx/8.3.1/../../../../pic32mx/lib/fpu64\libm-musl.a(__rem_pio2f.o)
                0x000000009d00abb8                __rem_pio2f

.text.SYS_Initialize
                0x000000009d00acc8      0x10c
 .text.SYS_Initialize
                0x000000009d00acc8      0x10c build/pic32mk_mcm_curiosity_pro/production/_ext/1433418692/initialization.o
                0x000000009d00acc8                SYS_Initialize

.text.Get_Postion
                0x000000009d00add4      0x108
 .text.Get_Postion
                0x000000009d00add4      0x108 build/pic32mk_mcm_curiosity_pro/production/_ext/1913420649/Speed_Enconder_HALLCAL.o
                0x000000009d00add4                Get_Postion

.text.PARK_Cale
                0x000000009d00aedc       0xfc
 .text.PARK_Cale
                0x000000009d00aedc       0xfc build/pic32mk_mcm_curiosity_pro/production/_ext/423055883/Coordinate_transform.o
                0x000000009d00aedc                PARK_Cale

.text.IPARK_Cale
                0x000000009d00afd8       0xfc
 .text.IPARK_Cale
                0x000000009d00afd8       0xfc build/pic32mk_mcm_curiosity_pro/production/_ext/423055883/Coordinate_transform.o
                0x000000009d00afd8                IPARK_Cale

.text.Postion_To_Zero_Double
                0x000000009d00b0d4       0xf4
 .text.Postion_To_Zero_Double
                0x000000009d00b0d4       0xf4 build/pic32mk_mcm_curiosity_pro/production/_ext/423055883/FOC_Control.o
                0x000000009d00b0d4                Postion_To_Zero_Double

.text.QT_Motor  0x000000009d00b1c8       0xec
 .text.QT_Motor
                0x000000009d00b1c8       0xec build/pic32mk_mcm_curiosity_pro/production/_ext/423055883/FOC_Control.o
                0x000000009d00b1c8                QT_Motor

.text.EEPROM_WordRead
                0x000000009d00b2b4       0xe8
 .text.EEPROM_WordRead
                0x000000009d00b2b4       0xe8 build/pic32mk_mcm_curiosity_pro/production/_ext/1978316258/plib_eeprom.o
                0x000000009d00b2b4                EEPROM_WordRead

.text.QEI1_Initialize
                0x000000009d00b39c       0xe8
 .text.QEI1_Initialize
                0x000000009d00b39c       0xe8 build/pic32mk_mcm_curiosity_pro/production/_ext/865749003/plib_qei1.o
                0x000000009d00b39c                QEI1_Initialize

.text.UART6_ErrorClear
                0x000000009d00b484       0xe8
 .text.UART6_ErrorClear
                0x000000009d00b484       0xe8 build/pic32mk_mcm_curiosity_pro/production/_ext/1068299602/plib_uart6.o

.text.I2C1_IsBusy
                0x000000009d00b56c       0xdc
 .text.I2C1_IsBusy
                0x000000009d00b56c       0xdc build/pic32mk_mcm_curiosity_pro/production/_ext/1540640169/plib_i2c1_master.o
                0x000000009d00b56c                I2C1_IsBusy

.text.general_exception
                0x000000009d00b648       0xdc
 .text.general_exception
                0x000000009d00b648       0xdc e:/program files (x86)/microchip/xc32/v4.10/bin/bin/../../lib/gcc/pic32mx/8.3.1/../../../../pic32mx/lib/fpu64\libpic32.a(general-exception.o)
                0x000000009d00b648                _general_exception_context

.text.APP_EepromWordWrite
                0x000000009d00b724      0x1a8
 .text.APP_EepromWordWrite
                0x000000009d00b724       0xd4 build/pic32mk_mcm_curiosity_pro/production/_ext/423055883/Coordinate_transform.o
 .text.APP_EepromWordWrite
                0x000000009d00b7f8       0xd4 build/pic32mk_mcm_curiosity_pro/production/_ext/423055883/FOC_Control.o

.text.APP_EepromWordWrite
                0x000000009d00b8cc      0x1a8
 .text.APP_EepromWordWrite
                0x000000009d00b8cc       0xd4 build/pic32mk_mcm_curiosity_pro/production/_ext/423055883/Motor.o
 .text.APP_EepromWordWrite
                0x000000009d00b9a0       0xd4 build/pic32mk_mcm_curiosity_pro/production/_ext/423055883/PI_Cale.o

.text.APP_EepromWordWrite
                0x000000009d00ba74      0x1a8
 .text.APP_EepromWordWrite
                0x000000009d00ba74       0xd4 build/pic32mk_mcm_curiosity_pro/production/_ext/423055883/SVPWM.o
 .text.APP_EepromWordWrite
                0x000000009d00bb48       0xd4 build/pic32mk_mcm_curiosity_pro/production/_ext/1913420649/Speed_Enconder_HALLCAL.o

.text.APP_EepromWordWrite
                0x000000009d00bc1c      0x1a8
 .text.APP_EepromWordWrite
                0x000000009d00bc1c       0xd4 build/pic32mk_mcm_curiosity_pro/production/_ext/1224054987/plib_adchs.o
 .text.APP_EepromWordWrite
                0x000000009d00bcf0       0xd4 build/pic32mk_mcm_curiosity_pro/production/_ext/1978316258/plib_eeprom.o

.text.APP_EepromWordWrite
                0x000000009d00bdc4      0x1a8
 .text.APP_EepromWordWrite
                0x000000009d00bdc4       0xd4 build/pic32mk_mcm_curiosity_pro/production/_ext/1540640169/plib_i2c1_master.o
 .text.APP_EepromWordWrite
                0x000000009d00be98       0xd4 build/pic32mk_mcm_curiosity_pro/production/_ext/1163999990/xc32_monitor.o

.text.APP_EepromWordWrite
                0x000000009d00bf6c      0x1a8
 .text.APP_EepromWordWrite
                0x000000009d00bf6c       0xd4 build/pic32mk_mcm_curiosity_pro/production/_ext/1433418692/initialization.o
 .text.APP_EepromWordWrite
                0x000000009d00c040       0xd4 build/pic32mk_mcm_curiosity_pro/production/_ext/1433418692/interrupts.o

.text.APP_EepromWordWrite
                0x000000009d00c114      0x1a8
 .text.APP_EepromWordWrite
                0x000000009d00c114       0xd4 build/pic32mk_mcm_curiosity_pro/production/_ext/1433418692/exceptions.o
 .text.APP_EepromWordWrite
                0x000000009d00c1e8       0xd4 build/pic32mk_mcm_curiosity_pro/production/_ext/813588705/vofa.o

.text.APP_EepromWordWrite
                0x000000009d00c2bc       0xd4
 .text.APP_EepromWordWrite
                0x000000009d00c2bc       0xd4 build/pic32mk_mcm_curiosity_pro/production/_ext/1360937237/main.o

.text.APP_I2C1Callback
                0x000000009d00c390       0xcc
 .text.APP_I2C1Callback
                0x000000009d00c390       0xcc build/pic32mk_mcm_curiosity_pro/production/_ext/1540640169/plib_i2c1_master.o
                0x000000009d00c390                APP_I2C1Callback

.rodata         0x000000009d00c45c       0xcc
 .rodata        0x000000009d00c45c       0xcc build/pic32mk_mcm_curiosity_pro/production/_ext/1360937237/main.o
                0x000000009d00c45c                sine_wave

.text.APP_EepromWordRead
                0x000000009d00c528       0xc8
 .text.APP_EepromWordRead
                0x000000009d00c528       0xc8 build/pic32mk_mcm_curiosity_pro/production/_ext/423055883/Coordinate_transform.o

.text.ICLARKE_Cale
                0x000000009d00c5f0       0xc8
 .text.ICLARKE_Cale
                0x000000009d00c5f0       0xc8 build/pic32mk_mcm_curiosity_pro/production/_ext/423055883/Coordinate_transform.o
                0x000000009d00c5f0                ICLARKE_Cale

.text.APP_EepromWordRead
                0x000000009d00c6b8      0x190
 .text.APP_EepromWordRead
                0x000000009d00c6b8       0xc8 build/pic32mk_mcm_curiosity_pro/production/_ext/423055883/FOC_Control.o
 .text.APP_EepromWordRead
                0x000000009d00c780       0xc8 build/pic32mk_mcm_curiosity_pro/production/_ext/423055883/Motor.o

.text.Sat       0x000000009d00c848       0xc8
 .text.Sat      0x000000009d00c848       0xc8 build/pic32mk_mcm_curiosity_pro/production/_ext/423055883/Motor.o
                0x000000009d00c848                Sat

.text.APP_EepromWordRead
                0x000000009d00c910      0x190
 .text.APP_EepromWordRead
                0x000000009d00c910       0xc8 build/pic32mk_mcm_curiosity_pro/production/_ext/423055883/PI_Cale.o
 .text.APP_EepromWordRead
                0x000000009d00c9d8       0xc8 build/pic32mk_mcm_curiosity_pro/production/_ext/423055883/SVPWM.o

.text.APP_EepromWordRead
                0x000000009d00caa0      0x190
 .text.APP_EepromWordRead
                0x000000009d00caa0       0xc8 build/pic32mk_mcm_curiosity_pro/production/_ext/1913420649/Speed_Enconder_HALLCAL.o
 .text.APP_EepromWordRead
                0x000000009d00cb68       0xc8 build/pic32mk_mcm_curiosity_pro/production/_ext/1224054987/plib_adchs.o

.text.ADCHS_ChannelResultInterruptDisable
                0x000000009d00cc30       0xc8
 .text.ADCHS_ChannelResultInterruptDisable
                0x000000009d00cc30       0xc8 build/pic32mk_mcm_curiosity_pro/production/_ext/1224054987/plib_adchs.o
                0x000000009d00cc30                ADCHS_ChannelResultInterruptDisable

.text.ADCHS_ChannelEarlyInterruptDisable
                0x000000009d00ccf8       0xc8
 .text.ADCHS_ChannelEarlyInterruptDisable
                0x000000009d00ccf8       0xc8 build/pic32mk_mcm_curiosity_pro/production/_ext/1224054987/plib_adchs.o
                0x000000009d00ccf8                ADCHS_ChannelEarlyInterruptDisable

.text.APP_EepromWordRead
                0x000000009d00cdc0       0xc8
 .text.APP_EepromWordRead
                0x000000009d00cdc0       0xc8 build/pic32mk_mcm_curiosity_pro/production/_ext/1978316258/plib_eeprom.o

.text.EEPROM_WriteExecute
                0x000000009d00ce88       0xc8
 .text.EEPROM_WriteExecute
                0x000000009d00ce88       0xc8 build/pic32mk_mcm_curiosity_pro/production/_ext/1978316258/plib_eeprom.o

.text.EEPROM_WordWrite
                0x000000009d00cf50       0xc8
 .text.EEPROM_WordWrite
                0x000000009d00cf50       0xc8 build/pic32mk_mcm_curiosity_pro/production/_ext/1978316258/plib_eeprom.o
                0x000000009d00cf50                EEPROM_WordWrite

.text.APP_EepromWordRead
                0x000000009d00d018      0x190
 .text.APP_EepromWordRead
                0x000000009d00d018       0xc8 build/pic32mk_mcm_curiosity_pro/production/_ext/1540640169/plib_i2c1_master.o
 .text.APP_EepromWordRead
                0x000000009d00d0e0       0xc8 build/pic32mk_mcm_curiosity_pro/production/_ext/1163999990/xc32_monitor.o

.text.APP_EepromWordRead
                0x000000009d00d1a8      0x190
 .text.APP_EepromWordRead
                0x000000009d00d1a8       0xc8 build/pic32mk_mcm_curiosity_pro/production/_ext/1433418692/initialization.o
 .text.APP_EepromWordRead
                0x000000009d00d270       0xc8 build/pic32mk_mcm_curiosity_pro/production/_ext/1433418692/interrupts.o

.text.APP_EepromWordRead
                0x000000009d00d338      0x190
 .text.APP_EepromWordRead
                0x000000009d00d338       0xc8 build/pic32mk_mcm_curiosity_pro/production/_ext/1433418692/exceptions.o
 .text.APP_EepromWordRead
                0x000000009d00d400       0xc8 build/pic32mk_mcm_curiosity_pro/production/_ext/813588705/vofa.o

.text.APP_EepromWordRead
                0x000000009d00d4c8       0xc8
 .text.APP_EepromWordRead
                0x000000009d00d4c8       0xc8 build/pic32mk_mcm_curiosity_pro/production/_ext/1360937237/main.o

.text.I2C1_BUS_InterruptHandler
                0x000000009d00d590       0xc4
 .text.I2C1_BUS_InterruptHandler
                0x000000009d00d590       0xc4 build/pic32mk_mcm_curiosity_pro/production/_ext/1540640169/plib_i2c1_master.o
                0x000000009d00d590                I2C1_BUS_InterruptHandler

.text.UART6_ReadCountGet
                0x000000009d00d654       0xc4
 .text.UART6_ReadCountGet
                0x000000009d00d654       0xc4 build/pic32mk_mcm_curiosity_pro/production/_ext/1068299602/plib_uart6.o
                0x000000009d00d654                UART6_ReadCountGet

.text.UART6_WritePendingBytesGet
                0x000000009d00d718       0xc4
 .text.UART6_WritePendingBytesGet
                0x000000009d00d718       0xc4 build/pic32mk_mcm_curiosity_pro/production/_ext/1068299602/plib_uart6.o

.text.Limit_Sat
                0x000000009d00d7dc       0xc0
 .text.Limit_Sat
                0x000000009d00d7dc       0xc0 build/pic32mk_mcm_curiosity_pro/production/_ext/423055883/PI_Cale.o
                0x000000009d00d7dc                Limit_Sat

.text.ADCHS_ChannelResultInterruptEnable
                0x000000009d00d89c       0xc0
 .text.ADCHS_ChannelResultInterruptEnable
                0x000000009d00d89c       0xc0 build/pic32mk_mcm_curiosity_pro/production/_ext/1224054987/plib_adchs.o
                0x000000009d00d89c                ADCHS_ChannelResultInterruptEnable

.text.ADCHS_ChannelEarlyInterruptEnable
                0x000000009d00d95c       0xc0
 .text.ADCHS_ChannelEarlyInterruptEnable
                0x000000009d00d95c       0xc0 build/pic32mk_mcm_curiosity_pro/production/_ext/1224054987/plib_adchs.o
                0x000000009d00d95c                ADCHS_ChannelEarlyInterruptEnable

.text.I2C1_Initialize
                0x000000009d00da1c       0xbc
 .text.I2C1_Initialize
                0x000000009d00da1c       0xbc build/pic32mk_mcm_curiosity_pro/production/_ext/1540640169/plib_i2c1_master.o
                0x000000009d00da1c                I2C1_Initialize

.text.ADCHS_ChannelResultIsReady
                0x000000009d00dad8       0xb4
 .text.ADCHS_ChannelResultIsReady
                0x000000009d00dad8       0xb4 build/pic32mk_mcm_curiosity_pro/production/_ext/1224054987/plib_adchs.o
                0x000000009d00dad8                ADCHS_ChannelResultIsReady

.text.EEPROM_PageErase
                0x000000009d00db8c       0xb4
 .text.EEPROM_PageErase
                0x000000009d00db8c       0xb4 build/pic32mk_mcm_curiosity_pro/production/_ext/1978316258/plib_eeprom.o
                0x000000009d00db8c                EEPROM_PageErase

.text.UART6_RX_InterruptHandler
                0x000000009d00dc40       0xb4
 .text.UART6_RX_InterruptHandler
                0x000000009d00dc40       0xb4 build/pic32mk_mcm_curiosity_pro/production/_ext/1068299602/plib_uart6.o
                0x000000009d00dc40                UART6_RX_InterruptHandler

.text.floor     0x000000009d00dcf4       0xb4
 .text.floor    0x000000009d00dcf4       0xb4 e:/program files (x86)/microchip/xc32/v4.10/bin/bin/../../lib/gcc/pic32mx/8.3.1/../../../../pic32mx/lib/fpu64\libm-musl.a(floor.o)
                0x000000009d00dcf4                floor

.text.APP_EepromPageErase
                0x000000009d00dda8      0x160
 .text.APP_EepromPageErase
                0x000000009d00dda8       0xb0 build/pic32mk_mcm_curiosity_pro/production/_ext/423055883/Coordinate_transform.o
 .text.APP_EepromPageErase
                0x000000009d00de58       0xb0 build/pic32mk_mcm_curiosity_pro/production/_ext/423055883/FOC_Control.o

.text.APP_EepromPageErase
                0x000000009d00df08      0x160
 .text.APP_EepromPageErase
                0x000000009d00df08       0xb0 build/pic32mk_mcm_curiosity_pro/production/_ext/423055883/Motor.o
 .text.APP_EepromPageErase
                0x000000009d00dfb8       0xb0 build/pic32mk_mcm_curiosity_pro/production/_ext/423055883/PI_Cale.o

.text.APP_EepromPageErase
                0x000000009d00e068      0x160
 .text.APP_EepromPageErase
                0x000000009d00e068       0xb0 build/pic32mk_mcm_curiosity_pro/production/_ext/423055883/SVPWM.o
 .text.APP_EepromPageErase
                0x000000009d00e118       0xb0 build/pic32mk_mcm_curiosity_pro/production/_ext/1913420649/Speed_Enconder_HALLCAL.o

.text.APP_EepromPageErase
                0x000000009d00e1c8      0x160
 .text.APP_EepromPageErase
                0x000000009d00e1c8       0xb0 build/pic32mk_mcm_curiosity_pro/production/_ext/1224054987/plib_adchs.o
 .text.APP_EepromPageErase
                0x000000009d00e278       0xb0 build/pic32mk_mcm_curiosity_pro/production/_ext/1978316258/plib_eeprom.o

.text.APP_EepromPageErase
                0x000000009d00e328       0xb0
 .text.APP_EepromPageErase
                0x000000009d00e328       0xb0 build/pic32mk_mcm_curiosity_pro/production/_ext/1540640169/plib_i2c1_master.o

.text.UART6_FAULT_InterruptHandler
                0x000000009d00e3d8       0xb0
 .text.UART6_FAULT_InterruptHandler
                0x000000009d00e3d8       0xb0 build/pic32mk_mcm_curiosity_pro/production/_ext/1068299602/plib_uart6.o
                0x000000009d00e3d8                UART6_FAULT_InterruptHandler

.text.APP_EepromPageErase
                0x000000009d00e488      0x160
 .text.APP_EepromPageErase
                0x000000009d00e488       0xb0 build/pic32mk_mcm_curiosity_pro/production/_ext/1163999990/xc32_monitor.o
 .text.APP_EepromPageErase
                0x000000009d00e538       0xb0 build/pic32mk_mcm_curiosity_pro/production/_ext/1433418692/initialization.o

.text.APP_EepromPageErase
                0x000000009d00e5e8      0x160
 .text.APP_EepromPageErase
                0x000000009d00e5e8       0xb0 build/pic32mk_mcm_curiosity_pro/production/_ext/1433418692/interrupts.o
 .text.APP_EepromPageErase
                0x000000009d00e698       0xb0 build/pic32mk_mcm_curiosity_pro/production/_ext/1433418692/exceptions.o

.text.APP_EepromPageErase
                0x000000009d00e748      0x160
 .text.APP_EepromPageErase
                0x000000009d00e748       0xb0 build/pic32mk_mcm_curiosity_pro/production/_ext/813588705/vofa.o
 .text.APP_EepromPageErase
                0x000000009d00e7f8       0xb0 build/pic32mk_mcm_curiosity_pro/production/_ext/1360937237/main.o

.text.Sign      0x000000009d00e8a8       0xa8
 .text.Sign     0x000000009d00e8a8       0xa8 build/pic32mk_mcm_curiosity_pro/production/_ext/423055883/Motor.o
                0x000000009d00e8a8                Sign

.text           0x000000009d00e950       0xa8
 .text          0x000000009d00e950       0xa8 e:/program files (x86)/microchip/xc32/v4.10/bin/bin/../../lib/gcc/pic32mx/8.3.1/../../../../pic32mx/lib/fpu64\libpic32.a(memset.o)
                0x000000009d00e950                memset

.text.EEPROM_BulkErase
                0x000000009d00e9f8       0xa4
 .text.EEPROM_BulkErase
                0x000000009d00e9f8       0xa4 build/pic32mk_mcm_curiosity_pro/production/_ext/1978316258/plib_eeprom.o
                0x000000009d00e9f8                EEPROM_BulkErase

.text.usartReadEventHandler
                0x000000009d00ea9c       0xa4
 .text.usartReadEventHandler
                0x000000009d00ea9c       0xa4 build/pic32mk_mcm_curiosity_pro/production/_ext/1068299602/plib_uart6.o
                0x000000009d00ea9c                usartReadEventHandler

.text.ADC_DATA1_InterruptHandler
                0x000000009d00eb40       0x9c
 .text.ADC_DATA1_InterruptHandler
                0x000000009d00eb40       0x9c build/pic32mk_mcm_curiosity_pro/production/_ext/1224054987/plib_adchs.o
                0x000000009d00eb40                ADC_DATA1_InterruptHandler

.text.ADC_DATA19_InterruptHandler
                0x000000009d00ebdc       0x9c
 .text.ADC_DATA19_InterruptHandler
                0x000000009d00ebdc       0x9c build/pic32mk_mcm_curiosity_pro/production/_ext/1224054987/plib_adchs.o
                0x000000009d00ebdc                ADC_DATA19_InterruptHandler

.text.Motor_Init
                0x000000009d00ec78       0x98
 .text.Motor_Init
                0x000000009d00ec78       0x98 build/pic32mk_mcm_curiosity_pro/production/_ext/423055883/Motor.o
                0x000000009d00ec78                Motor_Init

.text.EVIC_Initialize
                0x000000009d00ed10       0x98
 .text.EVIC_Initialize
                0x000000009d00ed10       0x98 build/pic32mk_mcm_curiosity_pro/production/_ext/1068756373/plib_evic.o
                0x000000009d00ed10                EVIC_Initialize

.text.GPIO_PortWrite
                0x000000009d00eda8       0x98
 .text.GPIO_PortWrite
                0x000000009d00eda8       0x98 build/pic32mk_mcm_curiosity_pro/production/_ext/1068702545/plib_gpio.o
                0x000000009d00eda8                GPIO_PortWrite

.text.MCPWM_ChannelDeadTimeSet
                0x000000009d00ee40       0x98
 .text.MCPWM_ChannelDeadTimeSet
                0x000000009d00ee40       0x98 build/pic32mk_mcm_curiosity_pro/production/_ext/1235120400/plib_mcpwm.o
                0x000000009d00ee40                MCPWM_ChannelDeadTimeSet

.text.TIMER_2_InterruptHandler
                0x000000009d00eed8       0x98
 .text.TIMER_2_InterruptHandler
                0x000000009d00eed8       0x98 build/pic32mk_mcm_curiosity_pro/production/_ext/865745863/plib_tmr2.o
                0x000000009d00eed8                TIMER_2_InterruptHandler

.text.TIMER_3_InterruptHandler
                0x000000009d00ef70       0x98
 .text.TIMER_3_InterruptHandler
                0x000000009d00ef70       0x98 build/pic32mk_mcm_curiosity_pro/production/_ext/865745863/plib_tmr3.o
                0x000000009d00ef70                TIMER_3_InterruptHandler

.text.populate_buffer
                0x000000009d00f008       0x94
 .text.populate_buffer
                0x000000009d00f008       0x94 build/pic32mk_mcm_curiosity_pro/production/_ext/423055883/Coordinate_transform.o

.text.CLARKE_Cale
                0x000000009d00f09c       0x94
 .text.CLARKE_Cale
                0x000000009d00f09c       0x94 build/pic32mk_mcm_curiosity_pro/production/_ext/423055883/Coordinate_transform.o
                0x000000009d00f09c                CLARKE_Cale

.text.populate_buffer
                0x000000009d00f130      0x128
 .text.populate_buffer
                0x000000009d00f130       0x94 build/pic32mk_mcm_curiosity_pro/production/_ext/423055883/FOC_Control.o
 .text.populate_buffer
                0x000000009d00f1c4       0x94 build/pic32mk_mcm_curiosity_pro/production/_ext/423055883/Motor.o

.text.populate_buffer
                0x000000009d00f258      0x128
 .text.populate_buffer
                0x000000009d00f258       0x94 build/pic32mk_mcm_curiosity_pro/production/_ext/423055883/PI_Cale.o
 .text.populate_buffer
                0x000000009d00f2ec       0x94 build/pic32mk_mcm_curiosity_pro/production/_ext/423055883/SVPWM.o

.text.populate_buffer
                0x000000009d00f380      0x128
 .text.populate_buffer
                0x000000009d00f380       0x94 build/pic32mk_mcm_curiosity_pro/production/_ext/1913420649/Speed_Enconder_HALLCAL.o
 .text.populate_buffer
                0x000000009d00f414       0x94 build/pic32mk_mcm_curiosity_pro/production/_ext/1224054987/plib_adchs.o

.text.ADC_DATA0_InterruptHandler
                0x000000009d00f4a8       0x94
 .text.ADC_DATA0_InterruptHandler
                0x000000009d00f4a8       0x94 build/pic32mk_mcm_curiosity_pro/production/_ext/1224054987/plib_adchs.o
                0x000000009d00f4a8                ADC_DATA0_InterruptHandler

.text.populate_buffer
                0x000000009d00f53c      0x128
 .text.populate_buffer
                0x000000009d00f53c       0x94 build/pic32mk_mcm_curiosity_pro/production/_ext/1978316258/plib_eeprom.o
 .text.populate_buffer
                0x000000009d00f5d0       0x94 build/pic32mk_mcm_curiosity_pro/production/_ext/1540640169/plib_i2c1_master.o

.text.I2C1_CallbackRegister
                0x000000009d00f664       0x94
 .text.I2C1_CallbackRegister
                0x000000009d00f664       0x94 build/pic32mk_mcm_curiosity_pro/production/_ext/1540640169/plib_i2c1_master.o
                0x000000009d00f664                I2C1_CallbackRegister

.text.IIC1_HANDLE
                0x000000009d00f6f8       0x94
 .text.IIC1_HANDLE
                0x000000009d00f6f8       0x94 build/pic32mk_mcm_curiosity_pro/production/_ext/1540640169/plib_i2c1_master.o
                0x000000009d00f6f8                IIC1_HANDLE

.text.populate_buffer
                0x000000009d00f78c      0x128
 .text.populate_buffer
                0x000000009d00f78c       0x94 build/pic32mk_mcm_curiosity_pro/production/_ext/1163999990/xc32_monitor.o
 .text.populate_buffer
                0x000000009d00f820       0x94 build/pic32mk_mcm_curiosity_pro/production/_ext/1433418692/initialization.o

.text.populate_buffer
                0x000000009d00f8b4      0x128
 .text.populate_buffer
                0x000000009d00f8b4       0x94 build/pic32mk_mcm_curiosity_pro/production/_ext/1433418692/interrupts.o
 .text.populate_buffer
                0x000000009d00f948       0x94 build/pic32mk_mcm_curiosity_pro/production/_ext/1433418692/exceptions.o

.text.populate_buffer
                0x000000009d00f9dc      0x128
 .text.populate_buffer
                0x000000009d00f9dc       0x94 build/pic32mk_mcm_curiosity_pro/production/_ext/813588705/vofa.o
 .text.populate_buffer
                0x000000009d00fa70       0x94 build/pic32mk_mcm_curiosity_pro/production/_ext/1360937237/main.o

.text           0x000000009d00fb04       0x8c
 .text          0x000000009d00fb04       0x8c e:/program files (x86)/microchip/xc32/v4.10/bin/bin/../../lib/gcc/pic32mx/8.3.1/../../../../pic32mx/lib/fpu64\libpic32.a(pic32_data_init.o)
                0x000000009d00fb04                __pic32_data_init

.text.scalbn    0x000000009d00fb90       0x8c
 .text.scalbn   0x000000009d00fb90       0x8c e:/program files (x86)/microchip/xc32/v4.10/bin/bin/../../lib/gcc/pic32mx/8.3.1/../../../../pic32mx/lib/fpu64\libm-musl.a(scalbn.o)
                0x000000009d00fb90                scalbn

.text.M_STOP    0x000000009d00fc1c       0x88
 .text.M_STOP   0x000000009d00fc1c       0x88 build/pic32mk_mcm_curiosity_pro/production/_ext/423055883/FOC_Control.o
                0x000000009d00fc1c                M_STOP

.text.my_abs    0x000000009d00fca4       0x88
 .text.my_abs   0x000000009d00fca4       0x88 build/pic32mk_mcm_curiosity_pro/production/_ext/423055883/Motor.o
                0x000000009d00fca4                my_abs

.text.EVIC_SourceEnable
                0x000000009d00fd2c       0x88
 .text.EVIC_SourceEnable
                0x000000009d00fd2c       0x88 build/pic32mk_mcm_curiosity_pro/production/_ext/1068756373/plib_evic.o
                0x000000009d00fd2c                EVIC_SourceEnable

.text.EVIC_SourceDisable
                0x000000009d00fdb4       0x88
 .text.EVIC_SourceDisable
                0x000000009d00fdb4       0x88 build/pic32mk_mcm_curiosity_pro/production/_ext/1068756373/plib_evic.o
                0x000000009d00fdb4                EVIC_SourceDisable

.text.EVIC_SourceStatusSet
                0x000000009d00fe3c       0x88
 .text.EVIC_SourceStatusSet
                0x000000009d00fe3c       0x88 build/pic32mk_mcm_curiosity_pro/production/_ext/1068756373/plib_evic.o
                0x000000009d00fe3c                EVIC_SourceStatusSet

.text.EVIC_SourceStatusClear
                0x000000009d00fec4       0x88
 .text.EVIC_SourceStatusClear
                0x000000009d00fec4       0x88 build/pic32mk_mcm_curiosity_pro/production/_ext/1068756373/plib_evic.o
                0x000000009d00fec4                EVIC_SourceStatusClear

.text.JScope_Data_Send
                0x000000009d00ff4c       0x84
 .text.JScope_Data_Send
                0x000000009d00ff4c       0x84 build/pic32mk_mcm_curiosity_pro/production/_ext/423055883/Motor.o
                0x000000009d00ff4c                JScope_Data_Send

.text.ADCHS_CallbackRegister
                0x000000009d00ffd0       0x84
 .text.ADCHS_CallbackRegister
                0x000000009d00ffd0       0x84 build/pic32mk_mcm_curiosity_pro/production/_ext/1224054987/plib_adchs.o
                0x000000009d00ffd0                ADCHS_CallbackRegister

.text.MCPWM_CallbackRegister
                0x000000009d010054       0x84
 .text.MCPWM_CallbackRegister
                0x000000009d010054       0x84 build/pic32mk_mcm_curiosity_pro/production/_ext/1235120400/plib_mcpwm.o
                0x000000009d010054                MCPWM_CallbackRegister

.text.UART6_ReadNotificationEnable
                0x000000009d0100d8       0x84
 .text.UART6_ReadNotificationEnable
                0x000000009d0100d8       0x84 build/pic32mk_mcm_curiosity_pro/production/_ext/1068299602/plib_uart6.o
                0x000000009d0100d8                UART6_ReadNotificationEnable

.text.UART6_WriteNotificationEnable
                0x000000009d01015c       0x84
 .text.UART6_WriteNotificationEnable
                0x000000009d01015c       0x84 build/pic32mk_mcm_curiosity_pro/production/_ext/1068299602/plib_uart6.o
                0x000000009d01015c                UART6_WriteNotificationEnable

.text._mon_getc
                0x000000009d0101e0       0x84
 .text._mon_getc
                0x000000009d0101e0       0x84 build/pic32mk_mcm_curiosity_pro/production/_ext/1163999990/xc32_monitor.o
                0x000000009d0101e0                _mon_getc

.text.scalbnf   0x000000009d010264       0x84
 .text.scalbnf  0x000000009d010264       0x84 e:/program files (x86)/microchip/xc32/v4.10/bin/bin/../../lib/gcc/pic32mx/8.3.1/../../../../pic32mx/lib/fpu64\libm-musl.a(scalbnf.o)
                0x000000009d010264                scalbnf

.text.FOC_Svpwm_dq
                0x000000009d0102e8       0x80
 .text.FOC_Svpwm_dq
                0x000000009d0102e8       0x80 build/pic32mk_mcm_curiosity_pro/production/_ext/423055883/FOC_Control.o
                0x000000009d0102e8                FOC_Svpwm_dq

.text.my_max    0x000000009d010368       0x80
 .text.my_max   0x000000009d010368       0x80 build/pic32mk_mcm_curiosity_pro/production/_ext/423055883/Motor.o
                0x000000009d010368                my_max

.text.INPUT_CAPTURE_4_InterruptHandler
                0x000000009d0103e8       0x80
 .text.INPUT_CAPTURE_4_InterruptHandler
                0x000000009d0103e8       0x80 build/pic32mk_mcm_curiosity_pro/production/_ext/1068655703/plib_icap4.o
                0x000000009d0103e8                INPUT_CAPTURE_4_InterruptHandler

.text.INPUT_CAPTURE_5_InterruptHandler
                0x000000009d010468       0x80
 .text.INPUT_CAPTURE_5_InterruptHandler
                0x000000009d010468       0x80 build/pic32mk_mcm_curiosity_pro/production/_ext/1068655703/plib_icap5.o
                0x000000009d010468                INPUT_CAPTURE_5_InterruptHandler

.text.INPUT_CAPTURE_3_InterruptHandler
                0x000000009d0104e8       0x80
 .text.INPUT_CAPTURE_3_InterruptHandler
                0x000000009d0104e8       0x80 build/pic32mk_mcm_curiosity_pro/production/_ext/1068655703/plib_icap3.o
                0x000000009d0104e8                INPUT_CAPTURE_3_InterruptHandler

.text._mon_putc
                0x000000009d010568       0x80
 .text._mon_putc
                0x000000009d010568       0x80 build/pic32mk_mcm_curiosity_pro/production/_ext/1163999990/xc32_monitor.o
                0x000000009d010568                _mon_putc

.text.Sigmoid   0x000000009d0105e8       0x7c
 .text.Sigmoid  0x000000009d0105e8       0x7c build/pic32mk_mcm_curiosity_pro/production/_ext/423055883/Motor.o
                0x000000009d0105e8                Sigmoid

.text.CDAC2_Initialize
                0x000000009d010664       0x7c
 .text.CDAC2_Initialize
                0x000000009d010664       0x7c build/pic32mk_mcm_curiosity_pro/production/_ext/1068833501/plib_cdac2.o
                0x000000009d010664                CDAC2_Initialize

.text.CDAC3_Initialize
                0x000000009d0106e0       0x7c
 .text.CDAC3_Initialize
                0x000000009d0106e0       0x7c build/pic32mk_mcm_curiosity_pro/production/_ext/1068833501/plib_cdac3.o
                0x000000009d0106e0                CDAC3_Initialize

.text.EEPROM_IsBusy
                0x000000009d01075c       0x7c
 .text.EEPROM_IsBusy
                0x000000009d01075c       0x7c build/pic32mk_mcm_curiosity_pro/production/_ext/1978316258/plib_eeprom.o
                0x000000009d01075c                EEPROM_IsBusy

.text.EVIC_SourceIsEnabled
                0x000000009d0107d8       0x7c
 .text.EVIC_SourceIsEnabled
                0x000000009d0107d8       0x7c build/pic32mk_mcm_curiosity_pro/production/_ext/1068756373/plib_evic.o
                0x000000009d0107d8                EVIC_SourceIsEnabled

.text.EVIC_SourceStatusGet
                0x000000009d010854       0x7c
 .text.EVIC_SourceStatusGet
                0x000000009d010854       0x7c build/pic32mk_mcm_curiosity_pro/production/_ext/1068756373/plib_evic.o
                0x000000009d010854                EVIC_SourceStatusGet

.text.MCPWM_ChannelPinsOverrideEnable
                0x000000009d0108d0       0x78
 .text.MCPWM_ChannelPinsOverrideEnable
                0x000000009d0108d0       0x78 build/pic32mk_mcm_curiosity_pro/production/_ext/1235120400/plib_mcpwm.o
                0x000000009d0108d0                MCPWM_ChannelPinsOverrideEnable

.text.MCPWM_ChannelPinsOverrideDisable
                0x000000009d010948       0x78
 .text.MCPWM_ChannelPinsOverrideDisable
                0x000000009d010948       0x78 build/pic32mk_mcm_curiosity_pro/production/_ext/1235120400/plib_mcpwm.o
                0x000000009d010948                MCPWM_ChannelPinsOverrideDisable

.text.MCPWM_ChannelPinsOwnershipEnable
                0x000000009d0109c0       0x78
 .text.MCPWM_ChannelPinsOwnershipEnable
                0x000000009d0109c0       0x78 build/pic32mk_mcm_curiosity_pro/production/_ext/1235120400/plib_mcpwm.o
                0x000000009d0109c0                MCPWM_ChannelPinsOwnershipEnable

.text.MCPWM_ChannelPinsOwnershipDisable
                0x000000009d010a38       0x78
 .text.MCPWM_ChannelPinsOwnershipDisable
                0x000000009d010a38       0x78 build/pic32mk_mcm_curiosity_pro/production/_ext/1235120400/plib_mcpwm.o
                0x000000009d010a38                MCPWM_ChannelPinsOwnershipDisable

.text.TMR3_Initialize
                0x000000009d010ab0       0x78
 .text.TMR3_Initialize
                0x000000009d010ab0       0x78 build/pic32mk_mcm_curiosity_pro/production/_ext/865745863/plib_tmr3.o
                0x000000009d010ab0                TMR3_Initialize

.text.UART6_AutoBaudQuery
                0x000000009d010b28       0x78
 .text.UART6_AutoBaudQuery
                0x000000009d010b28       0x78 build/pic32mk_mcm_curiosity_pro/production/_ext/1068299602/plib_uart6.o
                0x000000009d010b28                UART6_AutoBaudQuery

.text.ADCHS_ChannelConversionStart
                0x000000009d010ba0       0x74
 .text.ADCHS_ChannelConversionStart
                0x000000009d010ba0       0x74 build/pic32mk_mcm_curiosity_pro/production/_ext/1224054987/plib_adchs.o
                0x000000009d010ba0                ADCHS_ChannelConversionStart

.text.TMR2_Initialize
                0x000000009d010c14       0x74
 .text.TMR2_Initialize
                0x000000009d010c14       0x74 build/pic32mk_mcm_curiosity_pro/production/_ext/865745863/plib_tmr2.o
                0x000000009d010c14                TMR2_Initialize

.rodata.cst8    0x000000009d000190       0x70
 .rodata.cst8   0x000000009d000190       0x70 e:/program files (x86)/microchip/xc32/v4.10/bin/bin/../../lib/gcc/pic32mx/8.3.1/../../../../pic32mx/lib/fpu64\libm-musl.a(log.o)

.text.EVIC_INT_Restore
                0x000000009d010c88       0x6c
 .text.EVIC_INT_Restore
                0x000000009d010c88       0x6c build/pic32mk_mcm_curiosity_pro/production/_ext/1068756373/plib_evic.o
                0x000000009d010c88                EVIC_INT_Restore

.text.UART6_ReadThresholdSet
                0x000000009d010cf4       0x6c
 .text.UART6_ReadThresholdSet
                0x000000009d010cf4       0x6c build/pic32mk_mcm_curiosity_pro/production/_ext/1068299602/plib_uart6.o
                0x000000009d010cf4                UART6_ReadThresholdSet

.text.UART6_WriteThresholdSet
                0x000000009d010d60       0x6c
 .text.UART6_WriteThresholdSet
                0x000000009d010d60       0x6c build/pic32mk_mcm_curiosity_pro/production/_ext/1068299602/plib_uart6.o
                0x000000009d010d60                UART6_WriteThresholdSet

.text.UART6_AutoBaudSet
                0x000000009d010dcc       0x6c
 .text.UART6_AutoBaudSet
                0x000000009d010dcc       0x6c build/pic32mk_mcm_curiosity_pro/production/_ext/1068299602/plib_uart6.o
                0x000000009d010dcc                UART6_AutoBaudSet

.text.MCPWM_ChannelPrimaryDutySet
                0x000000009d010e38       0x68
 .text.MCPWM_ChannelPrimaryDutySet
                0x000000009d010e38       0x68 build/pic32mk_mcm_curiosity_pro/production/_ext/1235120400/plib_mcpwm.o
                0x000000009d010e38                MCPWM_ChannelPrimaryDutySet

.text.MCPWM_ChannelSecondaryDutySet
                0x000000009d010ea0       0x68
 .text.MCPWM_ChannelSecondaryDutySet
                0x000000009d010ea0       0x68 build/pic32mk_mcm_curiosity_pro/production/_ext/1235120400/plib_mcpwm.o
                0x000000009d010ea0                MCPWM_ChannelSecondaryDutySet

.text.MCPWM_ChannelPrimaryTriggerSet
                0x000000009d010f08       0x68
 .text.MCPWM_ChannelPrimaryTriggerSet
                0x000000009d010f08       0x68 build/pic32mk_mcm_curiosity_pro/production/_ext/1235120400/plib_mcpwm.o
                0x000000009d010f08                MCPWM_ChannelPrimaryTriggerSet

.text.MCPWM_ChannelSecondaryTriggerSet
                0x000000009d010f70       0x68
 .text.MCPWM_ChannelSecondaryTriggerSet
                0x000000009d010f70       0x68 build/pic32mk_mcm_curiosity_pro/production/_ext/1235120400/plib_mcpwm.o
                0x000000009d010f70                MCPWM_ChannelSecondaryTriggerSet

.text.MCPWM_ChannelLeadingEdgeBlankingDelaySet
                0x000000009d010fd8       0x68
 .text.MCPWM_ChannelLeadingEdgeBlankingDelaySet
                0x000000009d010fd8       0x68 build/pic32mk_mcm_curiosity_pro/production/_ext/1235120400/plib_mcpwm.o
                0x000000009d010fd8                MCPWM_ChannelLeadingEdgeBlankingDelaySet

.text.UART6_ReadFreeBufferCountGet
                0x000000009d011040       0x68
 .text.UART6_ReadFreeBufferCountGet
                0x000000009d011040       0x68 build/pic32mk_mcm_curiosity_pro/production/_ext/1068299602/plib_uart6.o
                0x000000009d011040                UART6_ReadFreeBufferCountGet

.text.UART6_ReadCallbackRegister
                0x000000009d0110a8       0x68
 .text.UART6_ReadCallbackRegister
                0x000000009d0110a8       0x68 build/pic32mk_mcm_curiosity_pro/production/_ext/1068299602/plib_uart6.o
                0x000000009d0110a8                UART6_ReadCallbackRegister

.text.UART6_WriteFreeBufferCountGet
                0x000000009d011110       0x68
 .text.UART6_WriteFreeBufferCountGet
                0x000000009d011110       0x68 build/pic32mk_mcm_curiosity_pro/production/_ext/1068299602/plib_uart6.o
                0x000000009d011110                UART6_WriteFreeBufferCountGet

.text.ADCHS_ModulesDisable
                0x000000009d011178       0x64
 .text.ADCHS_ModulesDisable
                0x000000009d011178       0x64 build/pic32mk_mcm_curiosity_pro/production/_ext/1224054987/plib_adchs.o
                0x000000009d011178                ADCHS_ModulesDisable

.text.EVIC_INT_Disable
                0x000000009d0111dc       0x64
 .text.EVIC_INT_Disable
                0x000000009d0111dc       0x64 build/pic32mk_mcm_curiosity_pro/production/_ext/1068756373/plib_evic.o
                0x000000009d0111dc                EVIC_INT_Disable

.text.GPIO_PortSet
                0x000000009d011240       0x64
 .text.GPIO_PortSet
                0x000000009d011240       0x64 build/pic32mk_mcm_curiosity_pro/production/_ext/1068702545/plib_gpio.o
                0x000000009d011240                GPIO_PortSet

.text.GPIO_PortClear
                0x000000009d0112a4       0x64
 .text.GPIO_PortClear
                0x000000009d0112a4       0x64 build/pic32mk_mcm_curiosity_pro/production/_ext/1068702545/plib_gpio.o
                0x000000009d0112a4                GPIO_PortClear

.text.GPIO_PortToggle
                0x000000009d011308       0x64
 .text.GPIO_PortToggle
                0x000000009d011308       0x64 build/pic32mk_mcm_curiosity_pro/production/_ext/1068702545/plib_gpio.o
                0x000000009d011308                GPIO_PortToggle

.text.GPIO_PortInputEnable
                0x000000009d01136c       0x64
 .text.GPIO_PortInputEnable
                0x000000009d01136c       0x64 build/pic32mk_mcm_curiosity_pro/production/_ext/1068702545/plib_gpio.o
                0x000000009d01136c                GPIO_PortInputEnable

.text.GPIO_PortOutputEnable
                0x000000009d0113d0       0x64
 .text.GPIO_PortOutputEnable
                0x000000009d0113d0       0x64 build/pic32mk_mcm_curiosity_pro/production/_ext/1068702545/plib_gpio.o
                0x000000009d0113d0                GPIO_PortOutputEnable

.text.OCMP2_Initialize
                0x000000009d011434       0x64
 .text.OCMP2_Initialize
                0x000000009d011434       0x64 build/pic32mk_mcm_curiosity_pro/production/_ext/1068476585/plib_ocmp2.o
                0x000000009d011434                OCMP2_Initialize

.text.OCMP3_Initialize
                0x000000009d011498       0x64
 .text.OCMP3_Initialize
                0x000000009d011498       0x64 build/pic32mk_mcm_curiosity_pro/production/_ext/1068476585/plib_ocmp3.o
                0x000000009d011498                OCMP3_Initialize

.text.OCMP4_Initialize
                0x000000009d0114fc       0x64
 .text.OCMP4_Initialize
                0x000000009d0114fc       0x64 build/pic32mk_mcm_curiosity_pro/production/_ext/1068476585/plib_ocmp4.o
                0x000000009d0114fc                OCMP4_Initialize

.text.delay_decrement
                0x000000009d011560       0x64
 .text.delay_decrement
                0x000000009d011560       0x64 build/pic32mk_mcm_curiosity_pro/production/_ext/865745863/plib_tmr3.o
                0x000000009d011560                delay_decrement

.text.Time3     0x000000009d0115c4       0x64
 .text.Time3    0x000000009d0115c4       0x64 build/pic32mk_mcm_curiosity_pro/production/_ext/865745863/plib_tmr3.o
                0x000000009d0115c4                Time3

.text.UART6_WriteCallbackRegister
                0x000000009d011628       0x64
 .text.UART6_WriteCallbackRegister
                0x000000009d011628       0x64 build/pic32mk_mcm_curiosity_pro/production/_ext/1068299602/plib_uart6.o
                0x000000009d011628                UART6_WriteCallbackRegister

.text.FOC_Control_Selected
                0x000000009d01168c       0x60
 .text.FOC_Control_Selected
                0x000000009d01168c       0x60 build/pic32mk_mcm_curiosity_pro/production/_ext/423055883/FOC_Control.o
                0x000000009d01168c                FOC_Control_Selected

.text.ADCHS_ModulesEnable
                0x000000009d0116ec       0x60
 .text.ADCHS_ModulesEnable
                0x000000009d0116ec       0x60 build/pic32mk_mcm_curiosity_pro/production/_ext/1224054987/plib_adchs.o
                0x000000009d0116ec                ADCHS_ModulesEnable

.text.QEI1_PositionWindowSet
                0x000000009d01174c       0x60
 .text.QEI1_PositionWindowSet
                0x000000009d01174c       0x60 build/pic32mk_mcm_curiosity_pro/production/_ext/865749003/plib_qei1.o
                0x000000009d01174c                QEI1_PositionWindowSet

.text.ADCHS_ChannelResultGet
                0x000000009d0117ac       0x5c
 .text.ADCHS_ChannelResultGet
                0x000000009d0117ac       0x5c build/pic32mk_mcm_curiosity_pro/production/_ext/1224054987/plib_adchs.o
                0x000000009d0117ac                ADCHS_ChannelResultGet

.text.I2C1_ErrorGet
                0x000000009d011808       0x5c
 .text.I2C1_ErrorGet
                0x000000009d011808       0x5c build/pic32mk_mcm_curiosity_pro/production/_ext/1540640169/plib_i2c1_master.o
                0x000000009d011808                I2C1_ErrorGet

.text.ICAP4_ErrorStatusGet
                0x000000009d011864       0x5c
 .text.ICAP4_ErrorStatusGet
                0x000000009d011864       0x5c build/pic32mk_mcm_curiosity_pro/production/_ext/1068655703/plib_icap4.o
                0x000000009d011864                ICAP4_ErrorStatusGet

.text.ICAP5_ErrorStatusGet
                0x000000009d0118c0       0x5c
 .text.ICAP5_ErrorStatusGet
                0x000000009d0118c0       0x5c build/pic32mk_mcm_curiosity_pro/production/_ext/1068655703/plib_icap5.o
                0x000000009d0118c0                ICAP5_ErrorStatusGet

.text.ICAP3_ErrorStatusGet
                0x000000009d01191c       0x5c
 .text.ICAP3_ErrorStatusGet
                0x000000009d01191c       0x5c build/pic32mk_mcm_curiosity_pro/production/_ext/1068655703/plib_icap3.o
                0x000000009d01191c                ICAP3_ErrorStatusGet

.text.delay_1ms
                0x000000009d011978       0x5c
 .text.delay_1ms
                0x000000009d011978       0x5c build/pic32mk_mcm_curiosity_pro/production/_ext/865745863/plib_tmr3.o
                0x000000009d011978                delay_1ms

.text.UART6_ErrorGet
                0x000000009d0119d4       0x5c
 .text.UART6_ErrorGet
                0x000000009d0119d4       0x5c build/pic32mk_mcm_curiosity_pro/production/_ext/1068299602/plib_uart6.o
                0x000000009d0119d4                UART6_ErrorGet

.text.Get_ADC   0x000000009d011a30       0x58
 .text.Get_ADC  0x000000009d011a30       0x58 build/pic32mk_mcm_curiosity_pro/production/_ext/1224054987/plib_adchs.o
                0x000000009d011a30                Get_ADC

.rodata         0x000000009d011a88       0x58
 .rodata        0x000000009d011a88       0x58 build/pic32mk_mcm_curiosity_pro/production/_ext/1224054987/plib_adchs.o

.text.CDAC2_DataWrite
                0x000000009d011ae0       0x58
 .text.CDAC2_DataWrite
                0x000000009d011ae0       0x58 build/pic32mk_mcm_curiosity_pro/production/_ext/1068833501/plib_cdac2.o
                0x000000009d011ae0                CDAC2_DataWrite

.text.CDAC3_DataWrite
                0x000000009d011b38       0x58
 .text.CDAC3_DataWrite
                0x000000009d011b38       0x58 build/pic32mk_mcm_curiosity_pro/production/_ext/1068833501/plib_cdac3.o
                0x000000009d011b38                CDAC3_DataWrite

.text.GPIO_PortRead
                0x000000009d011b90       0x58
 .text.GPIO_PortRead
                0x000000009d011b90       0x58 build/pic32mk_mcm_curiosity_pro/production/_ext/1068702545/plib_gpio.o
                0x000000009d011b90                GPIO_PortRead

.text.GPIO_PortLatchRead
                0x000000009d011be8       0x58
 .text.GPIO_PortLatchRead
                0x000000009d011be8       0x58 build/pic32mk_mcm_curiosity_pro/production/_ext/1068702545/plib_gpio.o
                0x000000009d011be8                GPIO_PortLatchRead

.text.ICAP4_Initialize
                0x000000009d011c40       0x58
 .text.ICAP4_Initialize
                0x000000009d011c40       0x58 build/pic32mk_mcm_curiosity_pro/production/_ext/1068655703/plib_icap4.o
                0x000000009d011c40                ICAP4_Initialize

.text.ICAP4_CallbackRegister
                0x000000009d011c98       0x58
 .text.ICAP4_CallbackRegister
                0x000000009d011c98       0x58 build/pic32mk_mcm_curiosity_pro/production/_ext/1068655703/plib_icap4.o
                0x000000009d011c98                ICAP4_CallbackRegister

.text.ICAP5_Initialize
                0x000000009d011cf0       0x58
 .text.ICAP5_Initialize
                0x000000009d011cf0       0x58 build/pic32mk_mcm_curiosity_pro/production/_ext/1068655703/plib_icap5.o
                0x000000009d011cf0                ICAP5_Initialize

.text.ICAP5_CallbackRegister
                0x000000009d011d48       0x58
 .text.ICAP5_CallbackRegister
                0x000000009d011d48       0x58 build/pic32mk_mcm_curiosity_pro/production/_ext/1068655703/plib_icap5.o
                0x000000009d011d48                ICAP5_CallbackRegister

.text.ICAP3_Initialize
                0x000000009d011da0       0x58
 .text.ICAP3_Initialize
                0x000000009d011da0       0x58 build/pic32mk_mcm_curiosity_pro/production/_ext/1068655703/plib_icap3.o
                0x000000009d011da0                ICAP3_Initialize

.text.ICAP3_CallbackRegister
                0x000000009d011df8       0x58
 .text.ICAP3_CallbackRegister
                0x000000009d011df8       0x58 build/pic32mk_mcm_curiosity_pro/production/_ext/1068655703/plib_icap3.o
                0x000000009d011df8                ICAP3_CallbackRegister

.text.QEI1_Stop
                0x000000009d011e50       0x58
 .text.QEI1_Stop
                0x000000009d011e50       0x58 build/pic32mk_mcm_curiosity_pro/production/_ext/865749003/plib_qei1.o
                0x000000009d011e50                QEI1_Stop

.text.TMR2_CallbackRegister
                0x000000009d011ea8       0x58
 .text.TMR2_CallbackRegister
                0x000000009d011ea8       0x58 build/pic32mk_mcm_curiosity_pro/production/_ext/865745863/plib_tmr2.o
                0x000000009d011ea8                TMR2_CallbackRegister

.text.TMR3_CallbackRegister
                0x000000009d011f00       0x58
 .text.TMR3_CallbackRegister
                0x000000009d011f00       0x58 build/pic32mk_mcm_curiosity_pro/production/_ext/865745863/plib_tmr3.o
                0x000000009d011f00                TMR3_CallbackRegister

.text.WDT_Clear
                0x000000009d011f58       0x58
 .text.WDT_Clear
                0x000000009d011f58       0x58 build/pic32mk_mcm_curiosity_pro/production/_ext/227981847/plib_wdt.o
                0x000000009d011f58                WDT_Clear

.text.ADCHS_GlobalEdgeConversionStart
                0x000000009d011fb0       0x54
 .text.ADCHS_GlobalEdgeConversionStart
                0x000000009d011fb0       0x54 build/pic32mk_mcm_curiosity_pro/production/_ext/1224054987/plib_adchs.o
                0x000000009d011fb0                ADCHS_GlobalEdgeConversionStart

.text.ADCHS_GlobalLevelConversionStart
                0x000000009d012004       0x54
 .text.ADCHS_GlobalLevelConversionStart
                0x000000009d012004       0x54 build/pic32mk_mcm_curiosity_pro/production/_ext/1224054987/plib_adchs.o
                0x000000009d012004                ADCHS_GlobalLevelConversionStart

.text.MCPWM_Start
                0x000000009d012058       0x54
 .text.MCPWM_Start
                0x000000009d012058       0x54 build/pic32mk_mcm_curiosity_pro/production/_ext/1235120400/plib_mcpwm.o
                0x000000009d012058                MCPWM_Start

.text.MCPWM_PrimaryPeriodSet
                0x000000009d0120ac       0x54
 .text.MCPWM_PrimaryPeriodSet
                0x000000009d0120ac       0x54 build/pic32mk_mcm_curiosity_pro/production/_ext/1235120400/plib_mcpwm.o
                0x000000009d0120ac                MCPWM_PrimaryPeriodSet

.text.MCPWM_SecondaryPeriodSet
                0x000000009d012100       0x54
 .text.MCPWM_SecondaryPeriodSet
                0x000000009d012100       0x54 build/pic32mk_mcm_curiosity_pro/production/_ext/1235120400/plib_mcpwm.o
                0x000000009d012100                MCPWM_SecondaryPeriodSet

.text.OCMP2_CompareSecondaryValueSet
                0x000000009d012154       0x54
 .text.OCMP2_CompareSecondaryValueSet
                0x000000009d012154       0x54 build/pic32mk_mcm_curiosity_pro/production/_ext/1068476585/plib_ocmp2.o
                0x000000009d012154                OCMP2_CompareSecondaryValueSet

.text.OCMP3_CompareSecondaryValueSet
                0x000000009d0121a8       0x54
 .text.OCMP3_CompareSecondaryValueSet
                0x000000009d0121a8       0x54 build/pic32mk_mcm_curiosity_pro/production/_ext/1068476585/plib_ocmp3.o
                0x000000009d0121a8                OCMP3_CompareSecondaryValueSet

.text.OCMP4_CompareSecondaryValueSet
                0x000000009d0121fc       0x54
 .text.OCMP4_CompareSecondaryValueSet
                0x000000009d0121fc       0x54 build/pic32mk_mcm_curiosity_pro/production/_ext/1068476585/plib_ocmp4.o
                0x000000009d0121fc                OCMP4_CompareSecondaryValueSet

.text.QEI1_Start
                0x000000009d012250       0x54
 .text.QEI1_Start
                0x000000009d012250       0x54 build/pic32mk_mcm_curiosity_pro/production/_ext/865749003/plib_qei1.o
                0x000000009d012250                QEI1_Start

.text.TMR2_PeriodSet
                0x000000009d0122a4       0x54
 .text.TMR2_PeriodSet
                0x000000009d0122a4       0x54 build/pic32mk_mcm_curiosity_pro/production/_ext/865745863/plib_tmr2.o
                0x000000009d0122a4                TMR2_PeriodSet

.text.UART6_WriteCountGet
                0x000000009d0122f8       0x54
 .text.UART6_WriteCountGet
                0x000000009d0122f8       0x54 build/pic32mk_mcm_curiosity_pro/production/_ext/1068299602/plib_uart6.o
                0x000000009d0122f8                UART6_WriteCountGet

.text.WDT_Enable
                0x000000009d01234c       0x54
 .text.WDT_Enable
                0x000000009d01234c       0x54 build/pic32mk_mcm_curiosity_pro/production/_ext/227981847/plib_wdt.o
                0x000000009d01234c                WDT_Enable

.text.WDT_WindowEnable
                0x000000009d0123a0       0x54
 .text.WDT_WindowEnable
                0x000000009d0123a0       0x54 build/pic32mk_mcm_curiosity_pro/production/_ext/227981847/plib_wdt.o
                0x000000009d0123a0                WDT_WindowEnable

.text.main_entry
                0x000000009d0123f4       0x54
 .text.main_entry
                0x000000009d0123f4       0x54 C:\Users\031379~1.FDI\AppData\Local\Temp\ccqTAD6z.o
                0x000000009d012428                __crt0_exit

.text.M_RUN     0x000000009d012448       0x50
 .text.M_RUN    0x000000009d012448       0x50 build/pic32mk_mcm_curiosity_pro/production/_ext/423055883/FOC_Control.o
                0x000000009d012448                M_RUN

.text.ADCHS_GlobalLevelConversionStop
                0x000000009d012498       0x50
 .text.ADCHS_GlobalLevelConversionStop
                0x000000009d012498       0x50 build/pic32mk_mcm_curiosity_pro/production/_ext/1224054987/plib_adchs.o
                0x000000009d012498                ADCHS_GlobalLevelConversionStop

.text.I2C1_MASTER_InterruptHandler
                0x000000009d0124e8       0x50
 .text.I2C1_MASTER_InterruptHandler
                0x000000009d0124e8       0x50 build/pic32mk_mcm_curiosity_pro/production/_ext/1540640169/plib_i2c1_master.o
                0x000000009d0124e8                I2C1_MASTER_InterruptHandler

.text.MCPWM_Stop
                0x000000009d012538       0x50
 .text.MCPWM_Stop
                0x000000009d012538       0x50 build/pic32mk_mcm_curiosity_pro/production/_ext/1235120400/plib_mcpwm.o
                0x000000009d012538                MCPWM_Stop

.text.QEI1_PositionCountSet
                0x000000009d012588       0x50
 .text.QEI1_PositionCountSet
                0x000000009d012588       0x50 build/pic32mk_mcm_curiosity_pro/production/_ext/865749003/plib_qei1.o
                0x000000009d012588                QEI1_PositionCountSet

.text.QEI1_VelocityCountSet
                0x000000009d0125d8       0x50
 .text.QEI1_VelocityCountSet
                0x000000009d0125d8       0x50 build/pic32mk_mcm_curiosity_pro/production/_ext/865749003/plib_qei1.o
                0x000000009d0125d8                QEI1_VelocityCountSet

.text.TMR3_PeriodSet
                0x000000009d012628       0x50
 .text.TMR3_PeriodSet
                0x000000009d012628       0x50 build/pic32mk_mcm_curiosity_pro/production/_ext/865745863/plib_tmr3.o
                0x000000009d012628                TMR3_PeriodSet

.text.usartWriteEventHandler
                0x000000009d012678       0x50
 .text.usartWriteEventHandler
                0x000000009d012678       0x50 build/pic32mk_mcm_curiosity_pro/production/_ext/1068299602/plib_uart6.o
                0x000000009d012678                usartWriteEventHandler

.text.WDT_Disable
                0x000000009d0126c8       0x50
 .text.WDT_Disable
                0x000000009d0126c8       0x50 build/pic32mk_mcm_curiosity_pro/production/_ext/227981847/plib_wdt.o
                0x000000009d0126c8                WDT_Disable

.text.WDT_WindowDisable
                0x000000009d012718       0x50
 .text.WDT_WindowDisable
                0x000000009d012718       0x50 build/pic32mk_mcm_curiosity_pro/production/_ext/227981847/plib_wdt.o
                0x000000009d012718                WDT_WindowDisable

.text.ADCHS_EOSStatusGet
                0x000000009d012768       0x4c
 .text.ADCHS_EOSStatusGet
                0x000000009d012768       0x4c build/pic32mk_mcm_curiosity_pro/production/_ext/1224054987/plib_adchs.o
                0x000000009d012768                ADCHS_EOSStatusGet

.text.EVIC_INT_Enable
                0x000000009d0127b4       0x4c
 .text.EVIC_INT_Enable
                0x000000009d0127b4       0x4c build/pic32mk_mcm_curiosity_pro/production/_ext/1068756373/plib_evic.o
                0x000000009d0127b4                EVIC_INT_Enable

.text.ICAP4_Enable
                0x000000009d012800       0x4c
 .text.ICAP4_Enable
                0x000000009d012800       0x4c build/pic32mk_mcm_curiosity_pro/production/_ext/1068655703/plib_icap4.o
                0x000000009d012800                ICAP4_Enable

.text.ICAP4_Disable
                0x000000009d01284c       0x4c
 .text.ICAP4_Disable
                0x000000009d01284c       0x4c build/pic32mk_mcm_curiosity_pro/production/_ext/1068655703/plib_icap4.o
                0x000000009d01284c                ICAP4_Disable

.text.ICAP5_Enable
                0x000000009d012898       0x4c
 .text.ICAP5_Enable
                0x000000009d012898       0x4c build/pic32mk_mcm_curiosity_pro/production/_ext/1068655703/plib_icap5.o
                0x000000009d012898                ICAP5_Enable

.text.ICAP5_Disable
                0x000000009d0128e4       0x4c
 .text.ICAP5_Disable
                0x000000009d0128e4       0x4c build/pic32mk_mcm_curiosity_pro/production/_ext/1068655703/plib_icap5.o
                0x000000009d0128e4                ICAP5_Disable

.text.ICAP3_Enable
                0x000000009d012930       0x4c
 .text.ICAP3_Enable
                0x000000009d012930       0x4c build/pic32mk_mcm_curiosity_pro/production/_ext/1068655703/plib_icap3.o
                0x000000009d012930                ICAP3_Enable

.text.ICAP3_Disable
                0x000000009d01297c       0x4c
 .text.ICAP3_Disable
                0x000000009d01297c       0x4c build/pic32mk_mcm_curiosity_pro/production/_ext/1068655703/plib_icap3.o
                0x000000009d01297c                ICAP3_Disable

.text.OCMP2_Enable
                0x000000009d0129c8       0x4c
 .text.OCMP2_Enable
                0x000000009d0129c8       0x4c build/pic32mk_mcm_curiosity_pro/production/_ext/1068476585/plib_ocmp2.o
                0x000000009d0129c8                OCMP2_Enable

.text.OCMP2_Disable
                0x000000009d012a14       0x4c
 .text.OCMP2_Disable
                0x000000009d012a14       0x4c build/pic32mk_mcm_curiosity_pro/production/_ext/1068476585/plib_ocmp2.o
                0x000000009d012a14                OCMP2_Disable

.text.OCMP3_Enable
                0x000000009d012a60       0x4c
 .text.OCMP3_Enable
                0x000000009d012a60       0x4c build/pic32mk_mcm_curiosity_pro/production/_ext/1068476585/plib_ocmp3.o
                0x000000009d012a60                OCMP3_Enable

.text.OCMP3_Disable
                0x000000009d012aac       0x4c
 .text.OCMP3_Disable
                0x000000009d012aac       0x4c build/pic32mk_mcm_curiosity_pro/production/_ext/1068476585/plib_ocmp3.o
                0x000000009d012aac                OCMP3_Disable

.text.OCMP4_Enable
                0x000000009d012af8       0x4c
 .text.OCMP4_Enable
                0x000000009d012af8       0x4c build/pic32mk_mcm_curiosity_pro/production/_ext/1068476585/plib_ocmp4.o
                0x000000009d012af8                OCMP4_Enable

.text.OCMP4_Disable
                0x000000009d012b44       0x4c
 .text.OCMP4_Disable
                0x000000009d012b44       0x4c build/pic32mk_mcm_curiosity_pro/production/_ext/1068476585/plib_ocmp4.o
                0x000000009d012b44                OCMP4_Disable

.text.TMR2_Start
                0x000000009d012b90       0x4c
 .text.TMR2_Start
                0x000000009d012b90       0x4c build/pic32mk_mcm_curiosity_pro/production/_ext/865745863/plib_tmr2.o
                0x000000009d012b90                TMR2_Start

.text.TMR2_Stop
                0x000000009d012bdc       0x4c
 .text.TMR2_Stop
                0x000000009d012bdc       0x4c build/pic32mk_mcm_curiosity_pro/production/_ext/865745863/plib_tmr2.o
                0x000000009d012bdc                TMR2_Stop

.text.TMR2_InterruptEnable
                0x000000009d012c28       0x4c
 .text.TMR2_InterruptEnable
                0x000000009d012c28       0x4c build/pic32mk_mcm_curiosity_pro/production/_ext/865745863/plib_tmr2.o
                0x000000009d012c28                TMR2_InterruptEnable

.text.TMR2_InterruptDisable
                0x000000009d012c74       0x4c
 .text.TMR2_InterruptDisable
                0x000000009d012c74       0x4c build/pic32mk_mcm_curiosity_pro/production/_ext/865745863/plib_tmr2.o
                0x000000009d012c74                TMR2_InterruptDisable

.text.TMR3_Start
                0x000000009d012cc0       0x4c
 .text.TMR3_Start
                0x000000009d012cc0       0x4c build/pic32mk_mcm_curiosity_pro/production/_ext/865745863/plib_tmr3.o
                0x000000009d012cc0                TMR3_Start

.text.TMR3_Stop
                0x000000009d012d0c       0x4c
 .text.TMR3_Stop
                0x000000009d012d0c       0x4c build/pic32mk_mcm_curiosity_pro/production/_ext/865745863/plib_tmr3.o
                0x000000009d012d0c                TMR3_Stop

.text.TMR3_InterruptEnable
                0x000000009d012d58       0x4c
 .text.TMR3_InterruptEnable
                0x000000009d012d58       0x4c build/pic32mk_mcm_curiosity_pro/production/_ext/865745863/plib_tmr3.o
                0x000000009d012d58                TMR3_InterruptEnable

.text.TMR3_InterruptDisable
                0x000000009d012da4       0x4c
 .text.TMR3_InterruptDisable
                0x000000009d012da4       0x4c build/pic32mk_mcm_curiosity_pro/production/_ext/865745863/plib_tmr3.o
                0x000000009d012da4                TMR3_InterruptDisable

.text.UART6_ReadBufferSizeGet
                0x000000009d012df0       0x4c
 .text.UART6_ReadBufferSizeGet
                0x000000009d012df0       0x4c build/pic32mk_mcm_curiosity_pro/production/_ext/1068299602/plib_uart6.o
                0x000000009d012df0                UART6_ReadBufferSizeGet

.text.UART6_WriteBufferSizeGet
                0x000000009d012e3c       0x4c
 .text.UART6_WriteBufferSizeGet
                0x000000009d012e3c       0x4c build/pic32mk_mcm_curiosity_pro/production/_ext/1068299602/plib_uart6.o
                0x000000009d012e3c                UART6_WriteBufferSizeGet

.text.__cosdf   0x000000009d012e88       0x4c
 .text.__cosdf  0x000000009d012e88       0x4c e:/program files (x86)/microchip/xc32/v4.10/bin/bin/../../lib/gcc/pic32mx/8.3.1/../../../../pic32mx/lib/fpu64\libm-musl.a(__cosdf.o)
                0x000000009d012e88                __cosdf

.text.ADC_ResultHandler1
                0x000000009d012ed4       0x48
 .text.ADC_ResultHandler1
                0x000000009d012ed4       0x48 build/pic32mk_mcm_curiosity_pro/production/_ext/1224054987/plib_adchs.o
                0x000000009d012ed4                ADC_ResultHandler1

.text.EEPROM_ErrorGet
                0x000000009d012f1c       0x48
 .text.EEPROM_ErrorGet
                0x000000009d012f1c       0x48 build/pic32mk_mcm_curiosity_pro/production/_ext/1978316258/plib_eeprom.o
                0x000000009d012f1c                EEPROM_ErrorGet

.text.ICAP4_CaptureBufferRead
                0x000000009d012f64       0x48
 .text.ICAP4_CaptureBufferRead
                0x000000009d012f64       0x48 build/pic32mk_mcm_curiosity_pro/production/_ext/1068655703/plib_icap4.o
                0x000000009d012f64                ICAP4_CaptureBufferRead

.text.ICAP5_CaptureBufferRead
                0x000000009d012fac       0x48
 .text.ICAP5_CaptureBufferRead
                0x000000009d012fac       0x48 build/pic32mk_mcm_curiosity_pro/production/_ext/1068655703/plib_icap5.o
                0x000000009d012fac                ICAP5_CaptureBufferRead

.text.ICAP3_CaptureBufferRead
                0x000000009d012ff4       0x48
 .text.ICAP3_CaptureBufferRead
                0x000000009d012ff4       0x48 build/pic32mk_mcm_curiosity_pro/production/_ext/1068655703/plib_icap3.o
                0x000000009d012ff4                ICAP3_CaptureBufferRead

.text.MCPWM_PrimaryPeriodGet
                0x000000009d01303c       0x48
 .text.MCPWM_PrimaryPeriodGet
                0x000000009d01303c       0x48 build/pic32mk_mcm_curiosity_pro/production/_ext/1235120400/plib_mcpwm.o
                0x000000009d01303c                MCPWM_PrimaryPeriodGet

.text.MCPWM_SecondaryPeriodGet
                0x000000009d013084       0x48
 .text.MCPWM_SecondaryPeriodGet
                0x000000009d013084       0x48 build/pic32mk_mcm_curiosity_pro/production/_ext/1235120400/plib_mcpwm.o
                0x000000009d013084                MCPWM_SecondaryPeriodGet

.text.OCMP2_CompareValueGet
                0x000000009d0130cc       0x48
 .text.OCMP2_CompareValueGet
                0x000000009d0130cc       0x48 build/pic32mk_mcm_curiosity_pro/production/_ext/1068476585/plib_ocmp2.o
                0x000000009d0130cc                OCMP2_CompareValueGet

.text.OCMP2_CompareSecondaryValueGet
                0x000000009d013114       0x48
 .text.OCMP2_CompareSecondaryValueGet
                0x000000009d013114       0x48 build/pic32mk_mcm_curiosity_pro/production/_ext/1068476585/plib_ocmp2.o
                0x000000009d013114                OCMP2_CompareSecondaryValueGet

.text.OCMP3_CompareValueGet
                0x000000009d01315c       0x48
 .text.OCMP3_CompareValueGet
                0x000000009d01315c       0x48 build/pic32mk_mcm_curiosity_pro/production/_ext/1068476585/plib_ocmp3.o
                0x000000009d01315c                OCMP3_CompareValueGet

.text.OCMP3_CompareSecondaryValueGet
                0x000000009d0131a4       0x48
 .text.OCMP3_CompareSecondaryValueGet
                0x000000009d0131a4       0x48 build/pic32mk_mcm_curiosity_pro/production/_ext/1068476585/plib_ocmp3.o
                0x000000009d0131a4                OCMP3_CompareSecondaryValueGet

.text.OCMP4_CompareValueGet
                0x000000009d0131ec       0x48
 .text.OCMP4_CompareValueGet
                0x000000009d0131ec       0x48 build/pic32mk_mcm_curiosity_pro/production/_ext/1068476585/plib_ocmp4.o
                0x000000009d0131ec                OCMP4_CompareValueGet

.text.OCMP4_CompareSecondaryValueGet
                0x000000009d013234       0x48
 .text.OCMP4_CompareSecondaryValueGet
                0x000000009d013234       0x48 build/pic32mk_mcm_curiosity_pro/production/_ext/1068476585/plib_ocmp4.o
                0x000000009d013234                OCMP4_CompareSecondaryValueGet

.text.TMR2_PeriodGet
                0x000000009d01327c       0x48
 .text.TMR2_PeriodGet
                0x000000009d01327c       0x48 build/pic32mk_mcm_curiosity_pro/production/_ext/865745863/plib_tmr2.o
                0x000000009d01327c                TMR2_PeriodGet

.text.TMR2_CounterGet
                0x000000009d0132c4       0x48
 .text.TMR2_CounterGet
                0x000000009d0132c4       0x48 build/pic32mk_mcm_curiosity_pro/production/_ext/865745863/plib_tmr2.o
                0x000000009d0132c4                TMR2_CounterGet

.text._general_exception_handler
                0x000000009d01330c       0x48
 .text._general_exception_handler
                0x000000009d01330c       0x48 build/pic32mk_mcm_curiosity_pro/production/_ext/1433418692/exceptions.o
                0x000000009d01330c                _general_exception_handler

.text._bootstrap_exception_handler
                0x000000009d013354       0x48
 .text._bootstrap_exception_handler
                0x000000009d013354       0x48 build/pic32mk_mcm_curiosity_pro/production/_ext/1433418692/exceptions.o
                0x000000009d013354                _bootstrap_exception_handler

.text.QEI1PeriodHandler
                0x000000009d01339c       0x48
 .text.QEI1PeriodHandler
                0x000000009d01339c       0x48 build/pic32mk_mcm_curiosity_pro/production/_ext/1360937237/main.o
                0x000000009d01339c                QEI1PeriodHandler

.text.__sindf   0x000000009d0133e4       0x48
 .text.__sindf  0x000000009d0133e4       0x48 e:/program files (x86)/microchip/xc32/v4.10/bin/bin/../../lib/gcc/pic32mx/8.3.1/../../../../pic32mx/lib/fpu64\libm-musl.a(__sindf.o)
                0x000000009d0133e4                __sindf

.text.QEI1_PulseIntervalGet
                0x000000009d01342c       0x44
 .text.QEI1_PulseIntervalGet
                0x000000009d01342c       0x44 build/pic32mk_mcm_curiosity_pro/production/_ext/865749003/plib_qei1.o
                0x000000009d01342c                QEI1_PulseIntervalGet

.text.TMR2_FrequencyGet
                0x000000009d013470       0x44
 .text.TMR2_FrequencyGet
                0x000000009d013470       0x44 build/pic32mk_mcm_curiosity_pro/production/_ext/865745863/plib_tmr2.o
                0x000000009d013470                TMR2_FrequencyGet

.text.TMR3_PeriodGet
                0x000000009d0134b4       0x44
 .text.TMR3_PeriodGet
                0x000000009d0134b4       0x44 build/pic32mk_mcm_curiosity_pro/production/_ext/865745863/plib_tmr3.o
                0x000000009d0134b4                TMR3_PeriodGet

.text.TMR3_CounterGet
                0x000000009d0134f8       0x44
 .text.TMR3_CounterGet
                0x000000009d0134f8       0x44 build/pic32mk_mcm_curiosity_pro/production/_ext/865745863/plib_tmr3.o
                0x000000009d0134f8                TMR3_CounterGet

.text.TMR3_FrequencyGet
                0x000000009d01353c       0x44
 .text.TMR3_FrequencyGet
                0x000000009d01353c       0x44 build/pic32mk_mcm_curiosity_pro/production/_ext/865745863/plib_tmr3.o
                0x000000009d01353c                TMR3_FrequencyGet

.text           0x000000009d013580       0x44
 .text          0x000000009d013580       0x44 e:/program files (x86)/microchip/xc32/v4.10/bin/bin/../../lib/gcc/pic32mx/8.3.1/../../../../pic32mx/lib/fpu64\pic32_software_reset.o
                0x000000009d013580                __pic32_software_reset

.text.Senserless_SMO_Control
                0x000000009d0135c4       0x40
 .text.Senserless_SMO_Control
                0x000000009d0135c4       0x40 build/pic32mk_mcm_curiosity_pro/production/_ext/423055883/FOC_Control.o
                0x000000009d0135c4                Senserless_SMO_Control

.text.Sensorless_Fullspeed_Control
                0x000000009d013604       0x40
 .text.Sensorless_Fullspeed_Control
                0x000000009d013604       0x40 build/pic32mk_mcm_curiosity_pro/production/_ext/423055883/FOC_Control.o
                0x000000009d013604                Sensorless_Fullspeed_Control

.text.Send_TO_PC
                0x000000009d013644       0x40
 .text.Send_TO_PC
                0x000000009d013644       0x40 build/pic32mk_mcm_curiosity_pro/production/_ext/423055883/FOC_Control.o
                0x000000009d013644                Send_TO_PC

.text.J_Scope_Write
                0x000000009d013684       0x40
 .text.J_Scope_Write
                0x000000009d013684       0x40 build/pic32mk_mcm_curiosity_pro/production/_ext/423055883/FOC_Control.o
                0x000000009d013684                J_Scope_Write

.rodata         0x000000009d0136c4       0x40
 .rodata        0x000000009d0136c4       0x40 build/pic32mk_mcm_curiosity_pro/production/_ext/423055883/FOC_Control.o

.text.getSysTick
                0x000000009d013704       0x40
 .text.getSysTick
                0x000000009d013704       0x40 build/pic32mk_mcm_curiosity_pro/production/_ext/865745863/plib_tmr3.o
                0x000000009d013704                getSysTick

.text.check_key_xzwFoc_Mode
                0x000000009d013744       0x40
 .text.check_key_xzwFoc_Mode
                0x000000009d013744       0x40 build/pic32mk_mcm_curiosity_pro/production/_ext/1360937237/main.o
                0x000000009d013744                check_key_xzwFoc_Mode

.rodata.cst8    0x000000009d013788       0x58
 .rodata.cst8   0x000000009d013788       0x30 e:/program files (x86)/microchip/xc32/v4.10/bin/bin/../../lib/gcc/pic32mx/8.3.1/../../../../pic32mx/lib/fpu64\libm-musl.a(__rem_pio2_large.o)
 .rodata.cst8   0x000000009d0137b8       0x28 e:/program files (x86)/microchip/xc32/v4.10/bin/bin/../../lib/gcc/pic32mx/8.3.1/../../../../pic32mx/lib/fpu64\libm-musl.a(__cosdf.o)

.rodata.cst4    0x000000009d0137e0       0x24
 .rodata.cst4   0x000000009d0137e0       0x24 e:/program files (x86)/microchip/xc32/v4.10/bin/bin/../../lib/gcc/pic32mx/8.3.1/../../../../pic32mx/lib/fpu64\libm-musl.a(expf.o)

.rodata         0x000000009d013804       0x20
 .rodata        0x000000009d013804       0x20 build/pic32mk_mcm_curiosity_pro/production/_ext/423055883/PI_Cale.o

.rodata         0x000000009d013828       0x20
 .rodata        0x000000009d013828       0x20 build/pic32mk_mcm_curiosity_pro/production/_ext/1540640169/plib_i2c1_master.o

.rodata.cst8    0x000000009d013848       0x40
 .rodata.cst8   0x000000009d013848       0x20 e:/program files (x86)/microchip/xc32/v4.10/bin/bin/../../lib/gcc/pic32mx/8.3.1/../../../../pic32mx/lib/fpu64\libm-musl.a(cosf.o)
 .rodata.cst8   0x000000009d013868       0x20 e:/program files (x86)/microchip/xc32/v4.10/bin/bin/../../lib/gcc/pic32mx/8.3.1/../../../../pic32mx/lib/fpu64\libm-musl.a(sinf.o)

.rodata.cst8    0x000000009d013888       0x40
 .rodata.cst8   0x000000009d013888       0x20 e:/program files (x86)/microchip/xc32/v4.10/bin/bin/../../lib/gcc/pic32mx/8.3.1/../../../../pic32mx/lib/fpu64\libm-musl.a(__rem_pio2f.o)
 .rodata.cst8   0x000000009d0138a8       0x20 e:/program files (x86)/microchip/xc32/v4.10/bin/bin/../../lib/gcc/pic32mx/8.3.1/../../../../pic32mx/lib/fpu64\libm-musl.a(__sindf.o)

.MIPS.abiflags  0x000000009d0138c8       0x18
 .MIPS.abiflags
                0x000000009d0138c8       0x18 e:/program files (x86)/microchip/xc32/v4.10/bin/bin/../../lib/gcc/pic32mx/8.3.1/../../../../pic32mx/lib/fpu64\debug-exception-return.o

.rodata         0x000000009d0138e0       0x18
 .rodata        0x000000009d0138e0       0x18 build/pic32mk_mcm_curiosity_pro/production/_ext/423055883/SVPWM.o

.text           0x000000009d0138f8       0x18
 .text          0x000000009d0138f8       0x18 e:/program files (x86)/microchip/xc32/v4.10/bin/bin/../../lib/gcc/pic32mx/8.3.1/../../../../pic32mx/lib/fpu64\libpic32.a(default-nmi-handler.o)
                0x000000009d0138f8                _nmi_handler

.rodata.cst8    0x000000009d013910       0x18
 .rodata.cst8   0x000000009d013910       0x18 e:/program files (x86)/microchip/xc32/v4.10/bin/bin/../../lib/gcc/pic32mx/8.3.1/../../../../pic32mx/lib/fpu64\libm-musl.a(floor.o)

.rodata         0x000000009d013928       0x14
 .rodata        0x000000009d013928       0x14 build/pic32mk_mcm_curiosity_pro/production/_ext/813588705/vofa.o

.rodata.cst8    0x000000009d013940       0x10
 .rodata.cst8   0x000000009d013940       0x10 e:/program files (x86)/microchip/xc32/v4.10/bin/bin/../../lib/gcc/pic32mx/8.3.1/../../../../pic32mx/lib/fpu64\libm-musl.a(scalbn.o)

.rodata         0x000000009d013950       0x14
 .rodata        0x000000009d013950        0xc build/pic32mk_mcm_curiosity_pro/production/_ext/423055883/Coordinate_transform.o
 .rodata        0x000000009d01395c        0x8 build/pic32mk_mcm_curiosity_pro/production/_ext/1913420649/Speed_Enconder_HALLCAL.o

.text._on_reset
                0x000000009d013964        0x8
 .text._on_reset
                0x000000009d013964        0x8 e:/program files (x86)/microchip/xc32/v4.10/bin/bin/../../lib/gcc/pic32mx/8.3.1/../../../../pic32mx/lib/fpu64\libpic32.a(default-on-reset.o)
                0x000000009d013964                _on_reset

.text._on_bootstrap
                0x000000009d01396c        0x8
 .text._on_bootstrap
                0x000000009d01396c        0x8 e:/program files (x86)/microchip/xc32/v4.10/bin/bin/../../lib/gcc/pic32mx/8.3.1/../../../../pic32mx/lib/fpu64\libpic32.a(default-on-bootstrap.o)
                0x000000009d01396c                _on_bootstrap

.rodata.cst4    0x000000009d013974        0x8
 .rodata.cst4   0x000000009d013974        0x8 e:/program files (x86)/microchip/xc32/v4.10/bin/bin/../../lib/gcc/pic32mx/8.3.1/../../../../pic32mx/lib/fpu64\libm-musl.a(cosf.o)

.rodata         0x000000009d01397c        0x8
 .rodata        0x000000009d01397c        0x8 e:/program files (x86)/microchip/xc32/v4.10/bin/bin/../../lib/gcc/pic32mx/8.3.1/../../../../pic32mx/lib/fpu64\libm-musl.a(expf.o)

.rodata.cst4    0x000000009d013984       0x10
 .rodata.cst4   0x000000009d013984        0x8 e:/program files (x86)/microchip/xc32/v4.10/bin/bin/../../lib/gcc/pic32mx/8.3.1/../../../../pic32mx/lib/fpu64\libm-musl.a(scalbnf.o)
 .rodata.cst4   0x000000009d01398c        0x8 e:/program files (x86)/microchip/xc32/v4.10/bin/bin/../../lib/gcc/pic32mx/8.3.1/../../../../pic32mx/lib/fpu64\libm-musl.a(sinf.o)

.rodata.cst4    0x000000009d013994        0x8
 .rodata.cst4   0x000000009d013994        0x8 e:/program files (x86)/microchip/xc32/v4.10/bin/bin/../../lib/gcc/pic32mx/8.3.1/../../../../pic32mx/lib/fpu64\libm-musl.a(sqrtf.o)
